
GccApplication1.elf:     file format elf32-avr

Sections:
Idx Name          Size      VMA       LMA       File off  Algn
  0 .data         00000014  00800200  00004672  00004706  2**0
                  CONTENTS, ALLOC, LOAD, DATA
  1 .text         00004672  00000000  00000000  00000094  2**1
                  CONTENTS, ALLOC, LOAD, READONLY, CODE
  2 .bss          00000021  00800214  00800214  0000471a  2**0
                  ALLOC
  3 .comment      00000030  00000000  00000000  0000471a  2**0
                  CONTENTS, READONLY
  4 .debug_aranges 00000298  00000000  00000000  0000474a  2**0
                  CONTENTS, READONLY, DEBUGGING
  5 .debug_info   00003566  00000000  00000000  000049e2  2**0
                  CONTENTS, READONLY, DEBUGGING
  6 .debug_abbrev 00000359  00000000  00000000  00007f48  2**0
                  CONTENTS, READONLY, DEBUGGING
  7 .debug_line   00003184  00000000  00000000  000082a1  2**0
                  CONTENTS, READONLY, DEBUGGING
  8 .debug_frame  00000ad4  00000000  00000000  0000b428  2**2
                  CONTENTS, READONLY, DEBUGGING
  9 .debug_str    00000734  00000000  00000000  0000befc  2**0
                  CONTENTS, READONLY, DEBUGGING
 10 .debug_loc    0000166f  00000000  00000000  0000c630  2**0
                  CONTENTS, READONLY, DEBUGGING
 11 .debug_ranges 000003a8  00000000  00000000  0000dc9f  2**0
                  CONTENTS, READONLY, DEBUGGING

Disassembly of section .text:

00000000 <__vectors>:
       0:	b2 c0       	rjmp	.+356    	; 0x166 <__ctors_end>
       2:	00 00       	nop
       4:	d1 c0       	rjmp	.+418    	; 0x1a8 <__bad_interrupt>
       6:	00 00       	nop
       8:	cf c0       	rjmp	.+414    	; 0x1a8 <__bad_interrupt>
       a:	00 00       	nop
       c:	cd c0       	rjmp	.+410    	; 0x1a8 <__bad_interrupt>
       e:	00 00       	nop
      10:	cb c0       	rjmp	.+406    	; 0x1a8 <__bad_interrupt>
      12:	00 00       	nop
      14:	0c 94 ed 0f 	jmp	0x1fda	; 0x1fda <__vector_5>
      18:	0c 94 c0 0f 	jmp	0x1f80	; 0x1f80 <__vector_6>
      1c:	c5 c0       	rjmp	.+394    	; 0x1a8 <__bad_interrupt>
      1e:	00 00       	nop
      20:	c3 c0       	rjmp	.+390    	; 0x1a8 <__bad_interrupt>
      22:	00 00       	nop
      24:	c1 c0       	rjmp	.+386    	; 0x1a8 <__bad_interrupt>
      26:	00 00       	nop
      28:	bf c0       	rjmp	.+382    	; 0x1a8 <__bad_interrupt>
      2a:	00 00       	nop
      2c:	bd c0       	rjmp	.+378    	; 0x1a8 <__bad_interrupt>
      2e:	00 00       	nop
      30:	bb c0       	rjmp	.+374    	; 0x1a8 <__bad_interrupt>
      32:	00 00       	nop
      34:	b9 c0       	rjmp	.+370    	; 0x1a8 <__bad_interrupt>
      36:	00 00       	nop
      38:	b7 c0       	rjmp	.+366    	; 0x1a8 <__bad_interrupt>
      3a:	00 00       	nop
      3c:	b5 c0       	rjmp	.+362    	; 0x1a8 <__bad_interrupt>
      3e:	00 00       	nop
      40:	b3 c0       	rjmp	.+358    	; 0x1a8 <__bad_interrupt>
      42:	00 00       	nop
      44:	b1 c0       	rjmp	.+354    	; 0x1a8 <__bad_interrupt>
      46:	00 00       	nop
      48:	af c0       	rjmp	.+350    	; 0x1a8 <__bad_interrupt>
      4a:	00 00       	nop
      4c:	ad c0       	rjmp	.+346    	; 0x1a8 <__bad_interrupt>
      4e:	00 00       	nop
      50:	ab c0       	rjmp	.+342    	; 0x1a8 <__bad_interrupt>
      52:	00 00       	nop
      54:	a9 c0       	rjmp	.+338    	; 0x1a8 <__bad_interrupt>
      56:	00 00       	nop
      58:	a7 c0       	rjmp	.+334    	; 0x1a8 <__bad_interrupt>
      5a:	00 00       	nop
      5c:	a5 c0       	rjmp	.+330    	; 0x1a8 <__bad_interrupt>
      5e:	00 00       	nop
      60:	a3 c0       	rjmp	.+326    	; 0x1a8 <__bad_interrupt>
      62:	00 00       	nop
      64:	a1 c0       	rjmp	.+322    	; 0x1a8 <__bad_interrupt>
      66:	00 00       	nop
      68:	9f c0       	rjmp	.+318    	; 0x1a8 <__bad_interrupt>
      6a:	00 00       	nop
      6c:	9d c0       	rjmp	.+314    	; 0x1a8 <__bad_interrupt>
      6e:	00 00       	nop
      70:	9b c0       	rjmp	.+310    	; 0x1a8 <__bad_interrupt>
      72:	00 00       	nop
      74:	99 c0       	rjmp	.+306    	; 0x1a8 <__bad_interrupt>
      76:	00 00       	nop
      78:	97 c0       	rjmp	.+302    	; 0x1a8 <__bad_interrupt>
      7a:	00 00       	nop
      7c:	95 c0       	rjmp	.+298    	; 0x1a8 <__bad_interrupt>
      7e:	00 00       	nop
      80:	93 c0       	rjmp	.+294    	; 0x1a8 <__bad_interrupt>
      82:	00 00       	nop
      84:	91 c0       	rjmp	.+290    	; 0x1a8 <__bad_interrupt>
      86:	00 00       	nop
      88:	8f c0       	rjmp	.+286    	; 0x1a8 <__bad_interrupt>
      8a:	00 00       	nop
      8c:	8d c0       	rjmp	.+282    	; 0x1a8 <__bad_interrupt>
      8e:	00 00       	nop
      90:	8b c0       	rjmp	.+278    	; 0x1a8 <__bad_interrupt>
      92:	00 00       	nop
      94:	89 c0       	rjmp	.+274    	; 0x1a8 <__bad_interrupt>
      96:	00 00       	nop
      98:	87 c0       	rjmp	.+270    	; 0x1a8 <__bad_interrupt>
      9a:	00 00       	nop
      9c:	85 c0       	rjmp	.+266    	; 0x1a8 <__bad_interrupt>
      9e:	00 00       	nop
      a0:	83 c0       	rjmp	.+262    	; 0x1a8 <__bad_interrupt>
      a2:	00 00       	nop
      a4:	81 c0       	rjmp	.+258    	; 0x1a8 <__bad_interrupt>
      a6:	00 00       	nop
      a8:	7f c0       	rjmp	.+254    	; 0x1a8 <__bad_interrupt>
      aa:	00 00       	nop
      ac:	7d c0       	rjmp	.+250    	; 0x1a8 <__bad_interrupt>
      ae:	00 00       	nop
      b0:	7b c0       	rjmp	.+246    	; 0x1a8 <__bad_interrupt>
      b2:	00 00       	nop
      b4:	79 c0       	rjmp	.+242    	; 0x1a8 <__bad_interrupt>
      b6:	00 00       	nop
      b8:	77 c0       	rjmp	.+238    	; 0x1a8 <__bad_interrupt>
      ba:	00 00       	nop
      bc:	75 c0       	rjmp	.+234    	; 0x1a8 <__bad_interrupt>
      be:	00 00       	nop
      c0:	73 c0       	rjmp	.+230    	; 0x1a8 <__bad_interrupt>
      c2:	00 00       	nop
      c4:	71 c0       	rjmp	.+226    	; 0x1a8 <__bad_interrupt>
      c6:	00 00       	nop
      c8:	6f c0       	rjmp	.+222    	; 0x1a8 <__bad_interrupt>
      ca:	00 00       	nop
      cc:	6d c0       	rjmp	.+218    	; 0x1a8 <__bad_interrupt>
      ce:	00 00       	nop
      d0:	6b c0       	rjmp	.+214    	; 0x1a8 <__bad_interrupt>
      d2:	00 00       	nop
      d4:	69 c0       	rjmp	.+210    	; 0x1a8 <__bad_interrupt>
      d6:	00 00       	nop
      d8:	67 c0       	rjmp	.+206    	; 0x1a8 <__bad_interrupt>
      da:	00 00       	nop
      dc:	65 c0       	rjmp	.+202    	; 0x1a8 <__bad_interrupt>
      de:	00 00       	nop
      e0:	63 c0       	rjmp	.+198    	; 0x1a8 <__bad_interrupt>
      e2:	00 00       	nop
      e4:	07 63       	ori	r16, 0x37	; 55
      e6:	42 36       	cpi	r20, 0x62	; 98
      e8:	b7 9b       	sbis	0x16, 7	; 22
      ea:	d8 a7       	std	Y+40, r29	; 0x28
      ec:	1a 39       	cpi	r17, 0x9A	; 154
      ee:	68 56       	subi	r22, 0x68	; 104
      f0:	18 ae       	std	Y+56, r1	; 0x38
      f2:	ba ab       	std	Y+50, r27	; 0x32
      f4:	55 8c       	ldd	r5, Z+29	; 0x1d
      f6:	1d 3c       	cpi	r17, 0xCD	; 205
      f8:	b7 cc       	rjmp	.-1682   	; 0xfffffa68 <__eeprom_end+0xff7efa68>
      fa:	57 63       	ori	r21, 0x37	; 55
      fc:	bd 6d       	ori	r27, 0xDD	; 221
      fe:	ed fd       	.word	0xfded	; ????
     100:	75 3e       	cpi	r23, 0xE5	; 229
     102:	f6 17       	cp	r31, r22
     104:	72 31       	cpi	r23, 0x12	; 18
     106:	bf 00       	.word	0x00bf	; ????
     108:	00 00       	nop
     10a:	80 3f       	cpi	r24, 0xF0	; 240
     10c:	08 00       	.word	0x0008	; ????
     10e:	00 00       	nop
     110:	be 92       	st	-X, r11
     112:	24 49       	sbci	r18, 0x94	; 148
     114:	12 3e       	cpi	r17, 0xE2	; 226
     116:	ab aa       	std	Y+51, r10	; 0x33
     118:	aa 2a       	or	r10, r26
     11a:	be cd       	rjmp	.-1156   	; 0xfffffc98 <__eeprom_end+0xff7efc98>
     11c:	cc cc       	rjmp	.-1640   	; 0xfffffab6 <__eeprom_end+0xff7efab6>
     11e:	4c 3e       	cpi	r20, 0xEC	; 236
     120:	00 00       	nop
     122:	00 80       	ld	r0, Z
     124:	be ab       	std	Y+54, r27	; 0x36
     126:	aa aa       	std	Y+50, r10	; 0x32
     128:	aa 3e       	cpi	r26, 0xEA	; 234
     12a:	00 00       	nop
     12c:	00 00       	nop
     12e:	bf 00       	.word	0x00bf	; ????
     130:	00 00       	nop
     132:	80 3f       	cpi	r24, 0xF0	; 240
     134:	00 00       	nop
     136:	00 00       	nop
     138:	00 08       	sbc	r0, r0
     13a:	41 78       	andi	r20, 0x81	; 129
     13c:	d3 bb       	out	0x13, r29	; 19
     13e:	43 87       	std	Z+11, r20	; 0x0b
     140:	d1 13       	cpse	r29, r17
     142:	3d 19       	sub	r19, r13
     144:	0e 3c       	cpi	r16, 0xCE	; 206
     146:	c3 bd       	out	0x23, r28	; 35
     148:	42 82       	std	Z+2, r4	; 0x02
     14a:	ad 2b       	or	r26, r29
     14c:	3e 68       	ori	r19, 0x8E	; 142
     14e:	ec 82       	std	Y+4, r14	; 0x04
     150:	76 be       	out	0x36, r7	; 54
     152:	d9 8f       	std	Y+25, r29	; 0x19
     154:	e1 a9       	ldd	r30, Z+49	; 0x31
     156:	3e 4c       	sbci	r19, 0xCE	; 206
     158:	80 ef       	ldi	r24, 0xF0	; 240
     15a:	ff be       	out	0x3f, r15	; 63
     15c:	01 c4       	rjmp	.+2050   	; 0x960 <lcd_set_4bit+0x7b6>
     15e:	ff 7f       	andi	r31, 0xFF	; 255
     160:	3f 00       	.word	0x003f	; ????
     162:	00 00       	nop
	...

00000166 <__ctors_end>:
     166:	11 24       	eor	r1, r1
     168:	1f be       	out	0x3f, r1	; 63
     16a:	cf ef       	ldi	r28, 0xFF	; 255
     16c:	d1 e2       	ldi	r29, 0x21	; 33
     16e:	de bf       	out	0x3e, r29	; 62
     170:	cd bf       	out	0x3d, r28	; 61
     172:	00 e0       	ldi	r16, 0x00	; 0
     174:	0c bf       	out	0x3c, r16	; 60

00000176 <__do_copy_data>:
     176:	12 e0       	ldi	r17, 0x02	; 2
     178:	a0 e0       	ldi	r26, 0x00	; 0
     17a:	b2 e0       	ldi	r27, 0x02	; 2
     17c:	e2 e7       	ldi	r30, 0x72	; 114
     17e:	f6 e4       	ldi	r31, 0x46	; 70
     180:	00 e0       	ldi	r16, 0x00	; 0
     182:	0b bf       	out	0x3b, r16	; 59
     184:	02 c0       	rjmp	.+4      	; 0x18a <__do_copy_data+0x14>
     186:	07 90       	elpm	r0, Z+
     188:	0d 92       	st	X+, r0
     18a:	a4 31       	cpi	r26, 0x14	; 20
     18c:	b1 07       	cpc	r27, r17
     18e:	d9 f7       	brne	.-10     	; 0x186 <__do_copy_data+0x10>

00000190 <__do_clear_bss>:
     190:	22 e0       	ldi	r18, 0x02	; 2
     192:	a4 e1       	ldi	r26, 0x14	; 20
     194:	b2 e0       	ldi	r27, 0x02	; 2
     196:	01 c0       	rjmp	.+2      	; 0x19a <.do_clear_bss_start>

00000198 <.do_clear_bss_loop>:
     198:	1d 92       	st	X+, r1

0000019a <.do_clear_bss_start>:
     19a:	a5 33       	cpi	r26, 0x35	; 53
     19c:	b2 07       	cpc	r27, r18
     19e:	e1 f7       	brne	.-8      	; 0x198 <.do_clear_bss_loop>
     1a0:	0e 94 7b 11 	call	0x22f6	; 0x22f6 <main>
     1a4:	0c 94 37 23 	jmp	0x466e	; 0x466e <_exit>

000001a8 <__bad_interrupt>:
     1a8:	2b cf       	rjmp	.-426    	; 0x0 <__vectors>

000001aa <lcd_set_4bit>:
			if(left_sensor>p && centre_sensor<q && right_sensor<p)
			{
				velocity(100,100);
				left();
			}
		}
     1aa:	0f 93       	push	r16
     1ac:	1f 93       	push	r17
     1ae:	cf 93       	push	r28
     1b0:	df 93       	push	r29
     1b2:	cd b7       	in	r28, 0x3d	; 61
     1b4:	de b7       	in	r29, 0x3e	; 62
     1b6:	c0 57       	subi	r28, 0x70	; 112
     1b8:	d1 09       	sbc	r29, r1
     1ba:	0f b6       	in	r0, 0x3f	; 63
     1bc:	f8 94       	cli
     1be:	de bf       	out	0x3e, r29	; 62
     1c0:	0f be       	out	0x3f, r0	; 63
     1c2:	cd bf       	out	0x3d, r28	; 61
     1c4:	80 e0       	ldi	r24, 0x00	; 0
     1c6:	90 e0       	ldi	r25, 0x00	; 0
     1c8:	a0 e8       	ldi	r26, 0x80	; 128
     1ca:	bf e3       	ldi	r27, 0x3F	; 63
     1cc:	89 83       	std	Y+1, r24	; 0x01
     1ce:	9a 83       	std	Y+2, r25	; 0x02
     1d0:	ab 83       	std	Y+3, r26	; 0x03
     1d2:	bc 83       	std	Y+4, r27	; 0x04
     1d4:	26 e6       	ldi	r18, 0x66	; 102
     1d6:	36 e6       	ldi	r19, 0x66	; 102
     1d8:	46 e6       	ldi	r20, 0x66	; 102
     1da:	55 e4       	ldi	r21, 0x45	; 69
     1dc:	69 81       	ldd	r22, Y+1	; 0x01
     1de:	7a 81       	ldd	r23, Y+2	; 0x02
     1e0:	8b 81       	ldd	r24, Y+3	; 0x03
     1e2:	9c 81       	ldd	r25, Y+4	; 0x04
     1e4:	0e 94 60 21 	call	0x42c0	; 0x42c0 <__mulsf3>
     1e8:	dc 01       	movw	r26, r24
     1ea:	cb 01       	movw	r24, r22
     1ec:	8d 83       	std	Y+5, r24	; 0x05
     1ee:	9e 83       	std	Y+6, r25	; 0x06
     1f0:	af 83       	std	Y+7, r26	; 0x07
     1f2:	b8 87       	std	Y+8, r27	; 0x08
     1f4:	20 e0       	ldi	r18, 0x00	; 0
     1f6:	30 e0       	ldi	r19, 0x00	; 0
     1f8:	40 e8       	ldi	r20, 0x80	; 128
     1fa:	5f e3       	ldi	r21, 0x3F	; 63
     1fc:	6d 81       	ldd	r22, Y+5	; 0x05
     1fe:	7e 81       	ldd	r23, Y+6	; 0x06
     200:	8f 81       	ldd	r24, Y+7	; 0x07
     202:	98 85       	ldd	r25, Y+8	; 0x08
     204:	0e 94 0d 20 	call	0x401a	; 0x401a <__cmpsf2>
     208:	88 23       	and	r24, r24
     20a:	2c f4       	brge	.+10     	; 0x216 <lcd_set_4bit+0x6c>
     20c:	81 e0       	ldi	r24, 0x01	; 1
     20e:	90 e0       	ldi	r25, 0x00	; 0
     210:	9a 87       	std	Y+10, r25	; 0x0a
     212:	89 87       	std	Y+9, r24	; 0x09
     214:	3f c0       	rjmp	.+126    	; 0x294 <lcd_set_4bit+0xea>
     216:	20 e0       	ldi	r18, 0x00	; 0
     218:	3f ef       	ldi	r19, 0xFF	; 255
     21a:	4f e7       	ldi	r20, 0x7F	; 127
     21c:	57 e4       	ldi	r21, 0x47	; 71
     21e:	6d 81       	ldd	r22, Y+5	; 0x05
     220:	7e 81       	ldd	r23, Y+6	; 0x06
     222:	8f 81       	ldd	r24, Y+7	; 0x07
     224:	98 85       	ldd	r25, Y+8	; 0x08
     226:	0e 94 5c 21 	call	0x42b8	; 0x42b8 <__gesf2>
     22a:	18 16       	cp	r1, r24
     22c:	4c f5       	brge	.+82     	; 0x280 <lcd_set_4bit+0xd6>
     22e:	20 e0       	ldi	r18, 0x00	; 0
     230:	30 e0       	ldi	r19, 0x00	; 0
     232:	40 e2       	ldi	r20, 0x20	; 32
     234:	51 e4       	ldi	r21, 0x41	; 65
     236:	69 81       	ldd	r22, Y+1	; 0x01
     238:	7a 81       	ldd	r23, Y+2	; 0x02
     23a:	8b 81       	ldd	r24, Y+3	; 0x03
     23c:	9c 81       	ldd	r25, Y+4	; 0x04
     23e:	0e 94 60 21 	call	0x42c0	; 0x42c0 <__mulsf3>
     242:	dc 01       	movw	r26, r24
     244:	cb 01       	movw	r24, r22
     246:	bc 01       	movw	r22, r24
     248:	cd 01       	movw	r24, r26
     24a:	0e 94 7e 20 	call	0x40fc	; 0x40fc <__fixunssfsi>
     24e:	dc 01       	movw	r26, r24
     250:	cb 01       	movw	r24, r22
     252:	9a 87       	std	Y+10, r25	; 0x0a
     254:	89 87       	std	Y+9, r24	; 0x09
     256:	0f c0       	rjmp	.+30     	; 0x276 <lcd_set_4bit+0xcc>
     258:	80 e7       	ldi	r24, 0x70	; 112
     25a:	91 e0       	ldi	r25, 0x01	; 1
     25c:	9c 87       	std	Y+12, r25	; 0x0c
     25e:	8b 87       	std	Y+11, r24	; 0x0b
     260:	8b 85       	ldd	r24, Y+11	; 0x0b
     262:	9c 85       	ldd	r25, Y+12	; 0x0c
     264:	01 97       	sbiw	r24, 0x01	; 1
     266:	f1 f7       	brne	.-4      	; 0x264 <lcd_set_4bit+0xba>
     268:	9c 87       	std	Y+12, r25	; 0x0c
     26a:	8b 87       	std	Y+11, r24	; 0x0b
     26c:	89 85       	ldd	r24, Y+9	; 0x09
     26e:	9a 85       	ldd	r25, Y+10	; 0x0a
     270:	01 97       	sbiw	r24, 0x01	; 1
     272:	9a 87       	std	Y+10, r25	; 0x0a
     274:	89 87       	std	Y+9, r24	; 0x09
     276:	89 85       	ldd	r24, Y+9	; 0x09
     278:	9a 85       	ldd	r25, Y+10	; 0x0a
     27a:	00 97       	sbiw	r24, 0x00	; 0
     27c:	69 f7       	brne	.-38     	; 0x258 <lcd_set_4bit+0xae>
     27e:	14 c0       	rjmp	.+40     	; 0x2a8 <lcd_set_4bit+0xfe>
     280:	6d 81       	ldd	r22, Y+5	; 0x05
     282:	7e 81       	ldd	r23, Y+6	; 0x06
     284:	8f 81       	ldd	r24, Y+7	; 0x07
     286:	98 85       	ldd	r25, Y+8	; 0x08
     288:	0e 94 7e 20 	call	0x40fc	; 0x40fc <__fixunssfsi>
     28c:	dc 01       	movw	r26, r24
     28e:	cb 01       	movw	r24, r22
     290:	9a 87       	std	Y+10, r25	; 0x0a
     292:	89 87       	std	Y+9, r24	; 0x09
     294:	89 85       	ldd	r24, Y+9	; 0x09
     296:	9a 85       	ldd	r25, Y+10	; 0x0a
     298:	9e 87       	std	Y+14, r25	; 0x0e
     29a:	8d 87       	std	Y+13, r24	; 0x0d
     29c:	8d 85       	ldd	r24, Y+13	; 0x0d
     29e:	9e 85       	ldd	r25, Y+14	; 0x0e
     2a0:	01 97       	sbiw	r24, 0x01	; 1
     2a2:	f1 f7       	brne	.-4      	; 0x2a0 <lcd_set_4bit+0xf6>
     2a4:	9e 87       	std	Y+14, r25	; 0x0e
     2a6:	8d 87       	std	Y+13, r24	; 0x0d
     2a8:	88 e2       	ldi	r24, 0x28	; 40
     2aa:	90 e0       	ldi	r25, 0x00	; 0
     2ac:	28 e2       	ldi	r18, 0x28	; 40
     2ae:	30 e0       	ldi	r19, 0x00	; 0
     2b0:	f9 01       	movw	r30, r18
     2b2:	20 81       	ld	r18, Z
     2b4:	2e 7f       	andi	r18, 0xFE	; 254
     2b6:	fc 01       	movw	r30, r24
     2b8:	20 83       	st	Z, r18
     2ba:	88 e2       	ldi	r24, 0x28	; 40
     2bc:	90 e0       	ldi	r25, 0x00	; 0
     2be:	28 e2       	ldi	r18, 0x28	; 40
     2c0:	30 e0       	ldi	r19, 0x00	; 0
     2c2:	f9 01       	movw	r30, r18
     2c4:	20 81       	ld	r18, Z
     2c6:	2d 7f       	andi	r18, 0xFD	; 253
     2c8:	fc 01       	movw	r30, r24
     2ca:	20 83       	st	Z, r18
     2cc:	88 e2       	ldi	r24, 0x28	; 40
     2ce:	90 e0       	ldi	r25, 0x00	; 0
     2d0:	20 e3       	ldi	r18, 0x30	; 48
     2d2:	fc 01       	movw	r30, r24
     2d4:	20 83       	st	Z, r18
     2d6:	88 e2       	ldi	r24, 0x28	; 40
     2d8:	90 e0       	ldi	r25, 0x00	; 0
     2da:	28 e2       	ldi	r18, 0x28	; 40
     2dc:	30 e0       	ldi	r19, 0x00	; 0
     2de:	f9 01       	movw	r30, r18
     2e0:	20 81       	ld	r18, Z
     2e2:	24 60       	ori	r18, 0x04	; 4
     2e4:	fc 01       	movw	r30, r24
     2e6:	20 83       	st	Z, r18
     2e8:	80 e0       	ldi	r24, 0x00	; 0
     2ea:	90 e0       	ldi	r25, 0x00	; 0
     2ec:	a0 ea       	ldi	r26, 0xA0	; 160
     2ee:	b0 e4       	ldi	r27, 0x40	; 64
     2f0:	8f 87       	std	Y+15, r24	; 0x0f
     2f2:	98 8b       	std	Y+16, r25	; 0x10
     2f4:	a9 8b       	std	Y+17, r26	; 0x11
     2f6:	ba 8b       	std	Y+18, r27	; 0x12
     2f8:	26 e6       	ldi	r18, 0x66	; 102
     2fa:	36 e6       	ldi	r19, 0x66	; 102
     2fc:	46 e6       	ldi	r20, 0x66	; 102
     2fe:	55 e4       	ldi	r21, 0x45	; 69
     300:	6f 85       	ldd	r22, Y+15	; 0x0f
     302:	78 89       	ldd	r23, Y+16	; 0x10
     304:	89 89       	ldd	r24, Y+17	; 0x11
     306:	9a 89       	ldd	r25, Y+18	; 0x12
     308:	0e 94 60 21 	call	0x42c0	; 0x42c0 <__mulsf3>
     30c:	dc 01       	movw	r26, r24
     30e:	cb 01       	movw	r24, r22
     310:	8b 8b       	std	Y+19, r24	; 0x13
     312:	9c 8b       	std	Y+20, r25	; 0x14
     314:	ad 8b       	std	Y+21, r26	; 0x15
     316:	be 8b       	std	Y+22, r27	; 0x16
     318:	20 e0       	ldi	r18, 0x00	; 0
     31a:	30 e0       	ldi	r19, 0x00	; 0
     31c:	40 e8       	ldi	r20, 0x80	; 128
     31e:	5f e3       	ldi	r21, 0x3F	; 63
     320:	6b 89       	ldd	r22, Y+19	; 0x13
     322:	7c 89       	ldd	r23, Y+20	; 0x14
     324:	8d 89       	ldd	r24, Y+21	; 0x15
     326:	9e 89       	ldd	r25, Y+22	; 0x16
     328:	0e 94 0d 20 	call	0x401a	; 0x401a <__cmpsf2>
     32c:	88 23       	and	r24, r24
     32e:	2c f4       	brge	.+10     	; 0x33a <lcd_set_4bit+0x190>
     330:	81 e0       	ldi	r24, 0x01	; 1
     332:	90 e0       	ldi	r25, 0x00	; 0
     334:	98 8f       	std	Y+24, r25	; 0x18
     336:	8f 8b       	std	Y+23, r24	; 0x17
     338:	3f c0       	rjmp	.+126    	; 0x3b8 <lcd_set_4bit+0x20e>
     33a:	20 e0       	ldi	r18, 0x00	; 0
     33c:	3f ef       	ldi	r19, 0xFF	; 255
     33e:	4f e7       	ldi	r20, 0x7F	; 127
     340:	57 e4       	ldi	r21, 0x47	; 71
     342:	6b 89       	ldd	r22, Y+19	; 0x13
     344:	7c 89       	ldd	r23, Y+20	; 0x14
     346:	8d 89       	ldd	r24, Y+21	; 0x15
     348:	9e 89       	ldd	r25, Y+22	; 0x16
     34a:	0e 94 5c 21 	call	0x42b8	; 0x42b8 <__gesf2>
     34e:	18 16       	cp	r1, r24
     350:	4c f5       	brge	.+82     	; 0x3a4 <lcd_set_4bit+0x1fa>
     352:	20 e0       	ldi	r18, 0x00	; 0
     354:	30 e0       	ldi	r19, 0x00	; 0
     356:	40 e2       	ldi	r20, 0x20	; 32
     358:	51 e4       	ldi	r21, 0x41	; 65
     35a:	6f 85       	ldd	r22, Y+15	; 0x0f
     35c:	78 89       	ldd	r23, Y+16	; 0x10
     35e:	89 89       	ldd	r24, Y+17	; 0x11
     360:	9a 89       	ldd	r25, Y+18	; 0x12
     362:	0e 94 60 21 	call	0x42c0	; 0x42c0 <__mulsf3>
     366:	dc 01       	movw	r26, r24
     368:	cb 01       	movw	r24, r22
     36a:	bc 01       	movw	r22, r24
     36c:	cd 01       	movw	r24, r26
     36e:	0e 94 7e 20 	call	0x40fc	; 0x40fc <__fixunssfsi>
     372:	dc 01       	movw	r26, r24
     374:	cb 01       	movw	r24, r22
     376:	98 8f       	std	Y+24, r25	; 0x18
     378:	8f 8b       	std	Y+23, r24	; 0x17
     37a:	0f c0       	rjmp	.+30     	; 0x39a <lcd_set_4bit+0x1f0>
     37c:	80 e7       	ldi	r24, 0x70	; 112
     37e:	91 e0       	ldi	r25, 0x01	; 1
     380:	9a 8f       	std	Y+26, r25	; 0x1a
     382:	89 8f       	std	Y+25, r24	; 0x19
     384:	89 8d       	ldd	r24, Y+25	; 0x19
     386:	9a 8d       	ldd	r25, Y+26	; 0x1a
     388:	01 97       	sbiw	r24, 0x01	; 1
     38a:	f1 f7       	brne	.-4      	; 0x388 <lcd_set_4bit+0x1de>
     38c:	9a 8f       	std	Y+26, r25	; 0x1a
     38e:	89 8f       	std	Y+25, r24	; 0x19
     390:	8f 89       	ldd	r24, Y+23	; 0x17
     392:	98 8d       	ldd	r25, Y+24	; 0x18
     394:	01 97       	sbiw	r24, 0x01	; 1
     396:	98 8f       	std	Y+24, r25	; 0x18
     398:	8f 8b       	std	Y+23, r24	; 0x17
     39a:	8f 89       	ldd	r24, Y+23	; 0x17
     39c:	98 8d       	ldd	r25, Y+24	; 0x18
     39e:	00 97       	sbiw	r24, 0x00	; 0
     3a0:	69 f7       	brne	.-38     	; 0x37c <lcd_set_4bit+0x1d2>
     3a2:	14 c0       	rjmp	.+40     	; 0x3cc <lcd_set_4bit+0x222>
     3a4:	6b 89       	ldd	r22, Y+19	; 0x13
     3a6:	7c 89       	ldd	r23, Y+20	; 0x14
     3a8:	8d 89       	ldd	r24, Y+21	; 0x15
     3aa:	9e 89       	ldd	r25, Y+22	; 0x16
     3ac:	0e 94 7e 20 	call	0x40fc	; 0x40fc <__fixunssfsi>
     3b0:	dc 01       	movw	r26, r24
     3b2:	cb 01       	movw	r24, r22
     3b4:	98 8f       	std	Y+24, r25	; 0x18
     3b6:	8f 8b       	std	Y+23, r24	; 0x17
     3b8:	8f 89       	ldd	r24, Y+23	; 0x17
     3ba:	98 8d       	ldd	r25, Y+24	; 0x18
     3bc:	9c 8f       	std	Y+28, r25	; 0x1c
     3be:	8b 8f       	std	Y+27, r24	; 0x1b
     3c0:	8b 8d       	ldd	r24, Y+27	; 0x1b
     3c2:	9c 8d       	ldd	r25, Y+28	; 0x1c
     3c4:	01 97       	sbiw	r24, 0x01	; 1
     3c6:	f1 f7       	brne	.-4      	; 0x3c4 <lcd_set_4bit+0x21a>
     3c8:	9c 8f       	std	Y+28, r25	; 0x1c
     3ca:	8b 8f       	std	Y+27, r24	; 0x1b
     3cc:	88 e2       	ldi	r24, 0x28	; 40
     3ce:	90 e0       	ldi	r25, 0x00	; 0
     3d0:	28 e2       	ldi	r18, 0x28	; 40
     3d2:	30 e0       	ldi	r19, 0x00	; 0
     3d4:	f9 01       	movw	r30, r18
     3d6:	20 81       	ld	r18, Z
     3d8:	2b 7f       	andi	r18, 0xFB	; 251
     3da:	fc 01       	movw	r30, r24
     3dc:	20 83       	st	Z, r18
     3de:	80 e0       	ldi	r24, 0x00	; 0
     3e0:	90 e0       	ldi	r25, 0x00	; 0
     3e2:	a0 e8       	ldi	r26, 0x80	; 128
     3e4:	bf e3       	ldi	r27, 0x3F	; 63
     3e6:	8d 8f       	std	Y+29, r24	; 0x1d
     3e8:	9e 8f       	std	Y+30, r25	; 0x1e
     3ea:	af 8f       	std	Y+31, r26	; 0x1f
     3ec:	b8 a3       	std	Y+32, r27	; 0x20
     3ee:	26 e6       	ldi	r18, 0x66	; 102
     3f0:	36 e6       	ldi	r19, 0x66	; 102
     3f2:	46 e6       	ldi	r20, 0x66	; 102
     3f4:	55 e4       	ldi	r21, 0x45	; 69
     3f6:	6d 8d       	ldd	r22, Y+29	; 0x1d
     3f8:	7e 8d       	ldd	r23, Y+30	; 0x1e
     3fa:	8f 8d       	ldd	r24, Y+31	; 0x1f
     3fc:	98 a1       	ldd	r25, Y+32	; 0x20
     3fe:	0e 94 60 21 	call	0x42c0	; 0x42c0 <__mulsf3>
     402:	dc 01       	movw	r26, r24
     404:	cb 01       	movw	r24, r22
     406:	89 a3       	std	Y+33, r24	; 0x21
     408:	9a a3       	std	Y+34, r25	; 0x22
     40a:	ab a3       	std	Y+35, r26	; 0x23
     40c:	bc a3       	std	Y+36, r27	; 0x24
     40e:	20 e0       	ldi	r18, 0x00	; 0
     410:	30 e0       	ldi	r19, 0x00	; 0
     412:	40 e8       	ldi	r20, 0x80	; 128
     414:	5f e3       	ldi	r21, 0x3F	; 63
     416:	69 a1       	ldd	r22, Y+33	; 0x21
     418:	7a a1       	ldd	r23, Y+34	; 0x22
     41a:	8b a1       	ldd	r24, Y+35	; 0x23
     41c:	9c a1       	ldd	r25, Y+36	; 0x24
     41e:	0e 94 0d 20 	call	0x401a	; 0x401a <__cmpsf2>
     422:	88 23       	and	r24, r24
     424:	2c f4       	brge	.+10     	; 0x430 <lcd_set_4bit+0x286>
     426:	81 e0       	ldi	r24, 0x01	; 1
     428:	90 e0       	ldi	r25, 0x00	; 0
     42a:	9e a3       	std	Y+38, r25	; 0x26
     42c:	8d a3       	std	Y+37, r24	; 0x25
     42e:	3f c0       	rjmp	.+126    	; 0x4ae <lcd_set_4bit+0x304>
     430:	20 e0       	ldi	r18, 0x00	; 0
     432:	3f ef       	ldi	r19, 0xFF	; 255
     434:	4f e7       	ldi	r20, 0x7F	; 127
     436:	57 e4       	ldi	r21, 0x47	; 71
     438:	69 a1       	ldd	r22, Y+33	; 0x21
     43a:	7a a1       	ldd	r23, Y+34	; 0x22
     43c:	8b a1       	ldd	r24, Y+35	; 0x23
     43e:	9c a1       	ldd	r25, Y+36	; 0x24
     440:	0e 94 5c 21 	call	0x42b8	; 0x42b8 <__gesf2>
     444:	18 16       	cp	r1, r24
     446:	4c f5       	brge	.+82     	; 0x49a <lcd_set_4bit+0x2f0>
     448:	20 e0       	ldi	r18, 0x00	; 0
     44a:	30 e0       	ldi	r19, 0x00	; 0
     44c:	40 e2       	ldi	r20, 0x20	; 32
     44e:	51 e4       	ldi	r21, 0x41	; 65
     450:	6d 8d       	ldd	r22, Y+29	; 0x1d
     452:	7e 8d       	ldd	r23, Y+30	; 0x1e
     454:	8f 8d       	ldd	r24, Y+31	; 0x1f
     456:	98 a1       	ldd	r25, Y+32	; 0x20
     458:	0e 94 60 21 	call	0x42c0	; 0x42c0 <__mulsf3>
     45c:	dc 01       	movw	r26, r24
     45e:	cb 01       	movw	r24, r22
     460:	bc 01       	movw	r22, r24
     462:	cd 01       	movw	r24, r26
     464:	0e 94 7e 20 	call	0x40fc	; 0x40fc <__fixunssfsi>
     468:	dc 01       	movw	r26, r24
     46a:	cb 01       	movw	r24, r22
     46c:	9e a3       	std	Y+38, r25	; 0x26
     46e:	8d a3       	std	Y+37, r24	; 0x25
     470:	0f c0       	rjmp	.+30     	; 0x490 <lcd_set_4bit+0x2e6>
     472:	80 e7       	ldi	r24, 0x70	; 112
     474:	91 e0       	ldi	r25, 0x01	; 1
     476:	98 a7       	std	Y+40, r25	; 0x28
     478:	8f a3       	std	Y+39, r24	; 0x27
     47a:	8f a1       	ldd	r24, Y+39	; 0x27
     47c:	98 a5       	ldd	r25, Y+40	; 0x28
     47e:	01 97       	sbiw	r24, 0x01	; 1
     480:	f1 f7       	brne	.-4      	; 0x47e <lcd_set_4bit+0x2d4>
     482:	98 a7       	std	Y+40, r25	; 0x28
     484:	8f a3       	std	Y+39, r24	; 0x27
     486:	8d a1       	ldd	r24, Y+37	; 0x25
     488:	9e a1       	ldd	r25, Y+38	; 0x26
     48a:	01 97       	sbiw	r24, 0x01	; 1
     48c:	9e a3       	std	Y+38, r25	; 0x26
     48e:	8d a3       	std	Y+37, r24	; 0x25
     490:	8d a1       	ldd	r24, Y+37	; 0x25
     492:	9e a1       	ldd	r25, Y+38	; 0x26
     494:	00 97       	sbiw	r24, 0x00	; 0
     496:	69 f7       	brne	.-38     	; 0x472 <lcd_set_4bit+0x2c8>
     498:	14 c0       	rjmp	.+40     	; 0x4c2 <lcd_set_4bit+0x318>
     49a:	69 a1       	ldd	r22, Y+33	; 0x21
     49c:	7a a1       	ldd	r23, Y+34	; 0x22
     49e:	8b a1       	ldd	r24, Y+35	; 0x23
     4a0:	9c a1       	ldd	r25, Y+36	; 0x24
     4a2:	0e 94 7e 20 	call	0x40fc	; 0x40fc <__fixunssfsi>
     4a6:	dc 01       	movw	r26, r24
     4a8:	cb 01       	movw	r24, r22
     4aa:	9e a3       	std	Y+38, r25	; 0x26
     4ac:	8d a3       	std	Y+37, r24	; 0x25
     4ae:	8d a1       	ldd	r24, Y+37	; 0x25
     4b0:	9e a1       	ldd	r25, Y+38	; 0x26
     4b2:	9a a7       	std	Y+42, r25	; 0x2a
     4b4:	89 a7       	std	Y+41, r24	; 0x29
     4b6:	89 a5       	ldd	r24, Y+41	; 0x29
     4b8:	9a a5       	ldd	r25, Y+42	; 0x2a
     4ba:	01 97       	sbiw	r24, 0x01	; 1
     4bc:	f1 f7       	brne	.-4      	; 0x4ba <lcd_set_4bit+0x310>
     4be:	9a a7       	std	Y+42, r25	; 0x2a
     4c0:	89 a7       	std	Y+41, r24	; 0x29
     4c2:	88 e2       	ldi	r24, 0x28	; 40
     4c4:	90 e0       	ldi	r25, 0x00	; 0
     4c6:	28 e2       	ldi	r18, 0x28	; 40
     4c8:	30 e0       	ldi	r19, 0x00	; 0
     4ca:	f9 01       	movw	r30, r18
     4cc:	20 81       	ld	r18, Z
     4ce:	2e 7f       	andi	r18, 0xFE	; 254
     4d0:	fc 01       	movw	r30, r24
     4d2:	20 83       	st	Z, r18
     4d4:	88 e2       	ldi	r24, 0x28	; 40
     4d6:	90 e0       	ldi	r25, 0x00	; 0
     4d8:	28 e2       	ldi	r18, 0x28	; 40
     4da:	30 e0       	ldi	r19, 0x00	; 0
     4dc:	f9 01       	movw	r30, r18
     4de:	20 81       	ld	r18, Z
     4e0:	2d 7f       	andi	r18, 0xFD	; 253
     4e2:	fc 01       	movw	r30, r24
     4e4:	20 83       	st	Z, r18
     4e6:	88 e2       	ldi	r24, 0x28	; 40
     4e8:	90 e0       	ldi	r25, 0x00	; 0
     4ea:	20 e3       	ldi	r18, 0x30	; 48
     4ec:	fc 01       	movw	r30, r24
     4ee:	20 83       	st	Z, r18
     4f0:	88 e2       	ldi	r24, 0x28	; 40
     4f2:	90 e0       	ldi	r25, 0x00	; 0
     4f4:	28 e2       	ldi	r18, 0x28	; 40
     4f6:	30 e0       	ldi	r19, 0x00	; 0
     4f8:	f9 01       	movw	r30, r18
     4fa:	20 81       	ld	r18, Z
     4fc:	24 60       	ori	r18, 0x04	; 4
     4fe:	fc 01       	movw	r30, r24
     500:	20 83       	st	Z, r18
     502:	80 e0       	ldi	r24, 0x00	; 0
     504:	90 e0       	ldi	r25, 0x00	; 0
     506:	a0 ea       	ldi	r26, 0xA0	; 160
     508:	b0 e4       	ldi	r27, 0x40	; 64
     50a:	8b a7       	std	Y+43, r24	; 0x2b
     50c:	9c a7       	std	Y+44, r25	; 0x2c
     50e:	ad a7       	std	Y+45, r26	; 0x2d
     510:	be a7       	std	Y+46, r27	; 0x2e
     512:	26 e6       	ldi	r18, 0x66	; 102
     514:	36 e6       	ldi	r19, 0x66	; 102
     516:	46 e6       	ldi	r20, 0x66	; 102
     518:	55 e4       	ldi	r21, 0x45	; 69
     51a:	6b a5       	ldd	r22, Y+43	; 0x2b
     51c:	7c a5       	ldd	r23, Y+44	; 0x2c
     51e:	8d a5       	ldd	r24, Y+45	; 0x2d
     520:	9e a5       	ldd	r25, Y+46	; 0x2e
     522:	0e 94 60 21 	call	0x42c0	; 0x42c0 <__mulsf3>
     526:	dc 01       	movw	r26, r24
     528:	cb 01       	movw	r24, r22
     52a:	8f a7       	std	Y+47, r24	; 0x2f
     52c:	98 ab       	std	Y+48, r25	; 0x30
     52e:	a9 ab       	std	Y+49, r26	; 0x31
     530:	ba ab       	std	Y+50, r27	; 0x32
     532:	20 e0       	ldi	r18, 0x00	; 0
     534:	30 e0       	ldi	r19, 0x00	; 0
     536:	40 e8       	ldi	r20, 0x80	; 128
     538:	5f e3       	ldi	r21, 0x3F	; 63
     53a:	6f a5       	ldd	r22, Y+47	; 0x2f
     53c:	78 a9       	ldd	r23, Y+48	; 0x30
     53e:	89 a9       	ldd	r24, Y+49	; 0x31
     540:	9a a9       	ldd	r25, Y+50	; 0x32
     542:	0e 94 0d 20 	call	0x401a	; 0x401a <__cmpsf2>
     546:	88 23       	and	r24, r24
     548:	2c f4       	brge	.+10     	; 0x554 <lcd_set_4bit+0x3aa>
     54a:	81 e0       	ldi	r24, 0x01	; 1
     54c:	90 e0       	ldi	r25, 0x00	; 0
     54e:	9c ab       	std	Y+52, r25	; 0x34
     550:	8b ab       	std	Y+51, r24	; 0x33
     552:	3f c0       	rjmp	.+126    	; 0x5d2 <lcd_set_4bit+0x428>
     554:	20 e0       	ldi	r18, 0x00	; 0
     556:	3f ef       	ldi	r19, 0xFF	; 255
     558:	4f e7       	ldi	r20, 0x7F	; 127
     55a:	57 e4       	ldi	r21, 0x47	; 71
     55c:	6f a5       	ldd	r22, Y+47	; 0x2f
     55e:	78 a9       	ldd	r23, Y+48	; 0x30
     560:	89 a9       	ldd	r24, Y+49	; 0x31
     562:	9a a9       	ldd	r25, Y+50	; 0x32
     564:	0e 94 5c 21 	call	0x42b8	; 0x42b8 <__gesf2>
     568:	18 16       	cp	r1, r24
     56a:	4c f5       	brge	.+82     	; 0x5be <lcd_set_4bit+0x414>
     56c:	20 e0       	ldi	r18, 0x00	; 0
     56e:	30 e0       	ldi	r19, 0x00	; 0
     570:	40 e2       	ldi	r20, 0x20	; 32
     572:	51 e4       	ldi	r21, 0x41	; 65
     574:	6b a5       	ldd	r22, Y+43	; 0x2b
     576:	7c a5       	ldd	r23, Y+44	; 0x2c
     578:	8d a5       	ldd	r24, Y+45	; 0x2d
     57a:	9e a5       	ldd	r25, Y+46	; 0x2e
     57c:	0e 94 60 21 	call	0x42c0	; 0x42c0 <__mulsf3>
     580:	dc 01       	movw	r26, r24
     582:	cb 01       	movw	r24, r22
     584:	bc 01       	movw	r22, r24
     586:	cd 01       	movw	r24, r26
     588:	0e 94 7e 20 	call	0x40fc	; 0x40fc <__fixunssfsi>
     58c:	dc 01       	movw	r26, r24
     58e:	cb 01       	movw	r24, r22
     590:	9c ab       	std	Y+52, r25	; 0x34
     592:	8b ab       	std	Y+51, r24	; 0x33
     594:	0f c0       	rjmp	.+30     	; 0x5b4 <lcd_set_4bit+0x40a>
     596:	80 e7       	ldi	r24, 0x70	; 112
     598:	91 e0       	ldi	r25, 0x01	; 1
     59a:	9e ab       	std	Y+54, r25	; 0x36
     59c:	8d ab       	std	Y+53, r24	; 0x35
     59e:	8d a9       	ldd	r24, Y+53	; 0x35
     5a0:	9e a9       	ldd	r25, Y+54	; 0x36
     5a2:	01 97       	sbiw	r24, 0x01	; 1
     5a4:	f1 f7       	brne	.-4      	; 0x5a2 <lcd_set_4bit+0x3f8>
     5a6:	9e ab       	std	Y+54, r25	; 0x36
     5a8:	8d ab       	std	Y+53, r24	; 0x35
     5aa:	8b a9       	ldd	r24, Y+51	; 0x33
     5ac:	9c a9       	ldd	r25, Y+52	; 0x34
     5ae:	01 97       	sbiw	r24, 0x01	; 1
     5b0:	9c ab       	std	Y+52, r25	; 0x34
     5b2:	8b ab       	std	Y+51, r24	; 0x33
     5b4:	8b a9       	ldd	r24, Y+51	; 0x33
     5b6:	9c a9       	ldd	r25, Y+52	; 0x34
     5b8:	00 97       	sbiw	r24, 0x00	; 0
     5ba:	69 f7       	brne	.-38     	; 0x596 <lcd_set_4bit+0x3ec>
     5bc:	14 c0       	rjmp	.+40     	; 0x5e6 <lcd_set_4bit+0x43c>
     5be:	6f a5       	ldd	r22, Y+47	; 0x2f
     5c0:	78 a9       	ldd	r23, Y+48	; 0x30
     5c2:	89 a9       	ldd	r24, Y+49	; 0x31
     5c4:	9a a9       	ldd	r25, Y+50	; 0x32
     5c6:	0e 94 7e 20 	call	0x40fc	; 0x40fc <__fixunssfsi>
     5ca:	dc 01       	movw	r26, r24
     5cc:	cb 01       	movw	r24, r22
     5ce:	9c ab       	std	Y+52, r25	; 0x34
     5d0:	8b ab       	std	Y+51, r24	; 0x33
     5d2:	8b a9       	ldd	r24, Y+51	; 0x33
     5d4:	9c a9       	ldd	r25, Y+52	; 0x34
     5d6:	98 af       	std	Y+56, r25	; 0x38
     5d8:	8f ab       	std	Y+55, r24	; 0x37
     5da:	8f a9       	ldd	r24, Y+55	; 0x37
     5dc:	98 ad       	ldd	r25, Y+56	; 0x38
     5de:	01 97       	sbiw	r24, 0x01	; 1
     5e0:	f1 f7       	brne	.-4      	; 0x5de <lcd_set_4bit+0x434>
     5e2:	98 af       	std	Y+56, r25	; 0x38
     5e4:	8f ab       	std	Y+55, r24	; 0x37
     5e6:	88 e2       	ldi	r24, 0x28	; 40
     5e8:	90 e0       	ldi	r25, 0x00	; 0
     5ea:	28 e2       	ldi	r18, 0x28	; 40
     5ec:	30 e0       	ldi	r19, 0x00	; 0
     5ee:	f9 01       	movw	r30, r18
     5f0:	20 81       	ld	r18, Z
     5f2:	2b 7f       	andi	r18, 0xFB	; 251
     5f4:	fc 01       	movw	r30, r24
     5f6:	20 83       	st	Z, r18
     5f8:	80 e0       	ldi	r24, 0x00	; 0
     5fa:	90 e0       	ldi	r25, 0x00	; 0
     5fc:	a0 e8       	ldi	r26, 0x80	; 128
     5fe:	bf e3       	ldi	r27, 0x3F	; 63
     600:	89 af       	std	Y+57, r24	; 0x39
     602:	9a af       	std	Y+58, r25	; 0x3a
     604:	ab af       	std	Y+59, r26	; 0x3b
     606:	bc af       	std	Y+60, r27	; 0x3c
     608:	26 e6       	ldi	r18, 0x66	; 102
     60a:	36 e6       	ldi	r19, 0x66	; 102
     60c:	46 e6       	ldi	r20, 0x66	; 102
     60e:	55 e4       	ldi	r21, 0x45	; 69
     610:	69 ad       	ldd	r22, Y+57	; 0x39
     612:	7a ad       	ldd	r23, Y+58	; 0x3a
     614:	8b ad       	ldd	r24, Y+59	; 0x3b
     616:	9c ad       	ldd	r25, Y+60	; 0x3c
     618:	0e 94 60 21 	call	0x42c0	; 0x42c0 <__mulsf3>
     61c:	dc 01       	movw	r26, r24
     61e:	cb 01       	movw	r24, r22
     620:	9e 01       	movw	r18, r28
     622:	23 5c       	subi	r18, 0xC3	; 195
     624:	3f 4f       	sbci	r19, 0xFF	; 255
     626:	f9 01       	movw	r30, r18
     628:	80 83       	st	Z, r24
     62a:	91 83       	std	Z+1, r25	; 0x01
     62c:	a2 83       	std	Z+2, r26	; 0x02
     62e:	b3 83       	std	Z+3, r27	; 0x03
     630:	20 e0       	ldi	r18, 0x00	; 0
     632:	30 e0       	ldi	r19, 0x00	; 0
     634:	40 e8       	ldi	r20, 0x80	; 128
     636:	5f e3       	ldi	r21, 0x3F	; 63
     638:	ce 01       	movw	r24, r28
     63a:	cd 96       	adiw	r24, 0x3d	; 61
     63c:	fc 01       	movw	r30, r24
     63e:	60 81       	ld	r22, Z
     640:	71 81       	ldd	r23, Z+1	; 0x01
     642:	82 81       	ldd	r24, Z+2	; 0x02
     644:	93 81       	ldd	r25, Z+3	; 0x03
     646:	0e 94 0d 20 	call	0x401a	; 0x401a <__cmpsf2>
     64a:	88 23       	and	r24, r24
     64c:	4c f4       	brge	.+18     	; 0x660 <lcd_set_4bit+0x4b6>
     64e:	ce 01       	movw	r24, r28
     650:	8f 5b       	subi	r24, 0xBF	; 191
     652:	9f 4f       	sbci	r25, 0xFF	; 255
     654:	21 e0       	ldi	r18, 0x01	; 1
     656:	30 e0       	ldi	r19, 0x00	; 0
     658:	fc 01       	movw	r30, r24
     65a:	31 83       	std	Z+1, r19	; 0x01
     65c:	20 83       	st	Z, r18
     65e:	67 c0       	rjmp	.+206    	; 0x72e <lcd_set_4bit+0x584>
     660:	20 e0       	ldi	r18, 0x00	; 0
     662:	3f ef       	ldi	r19, 0xFF	; 255
     664:	4f e7       	ldi	r20, 0x7F	; 127
     666:	57 e4       	ldi	r21, 0x47	; 71
     668:	ce 01       	movw	r24, r28
     66a:	cd 96       	adiw	r24, 0x3d	; 61
     66c:	fc 01       	movw	r30, r24
     66e:	60 81       	ld	r22, Z
     670:	71 81       	ldd	r23, Z+1	; 0x01
     672:	82 81       	ldd	r24, Z+2	; 0x02
     674:	93 81       	ldd	r25, Z+3	; 0x03
     676:	0e 94 5c 21 	call	0x42b8	; 0x42b8 <__gesf2>
     67a:	18 16       	cp	r1, r24
     67c:	0c f0       	brlt	.+2      	; 0x680 <lcd_set_4bit+0x4d6>
     67e:	46 c0       	rjmp	.+140    	; 0x70c <lcd_set_4bit+0x562>
     680:	20 e0       	ldi	r18, 0x00	; 0
     682:	30 e0       	ldi	r19, 0x00	; 0
     684:	40 e2       	ldi	r20, 0x20	; 32
     686:	51 e4       	ldi	r21, 0x41	; 65
     688:	69 ad       	ldd	r22, Y+57	; 0x39
     68a:	7a ad       	ldd	r23, Y+58	; 0x3a
     68c:	8b ad       	ldd	r24, Y+59	; 0x3b
     68e:	9c ad       	ldd	r25, Y+60	; 0x3c
     690:	0e 94 60 21 	call	0x42c0	; 0x42c0 <__mulsf3>
     694:	dc 01       	movw	r26, r24
     696:	cb 01       	movw	r24, r22
     698:	8e 01       	movw	r16, r28
     69a:	0f 5b       	subi	r16, 0xBF	; 191
     69c:	1f 4f       	sbci	r17, 0xFF	; 255
     69e:	bc 01       	movw	r22, r24
     6a0:	cd 01       	movw	r24, r26
     6a2:	0e 94 7e 20 	call	0x40fc	; 0x40fc <__fixunssfsi>
     6a6:	dc 01       	movw	r26, r24
     6a8:	cb 01       	movw	r24, r22
     6aa:	f8 01       	movw	r30, r16
     6ac:	91 83       	std	Z+1, r25	; 0x01
     6ae:	80 83       	st	Z, r24
     6b0:	24 c0       	rjmp	.+72     	; 0x6fa <lcd_set_4bit+0x550>
     6b2:	ce 01       	movw	r24, r28
     6b4:	8d 5b       	subi	r24, 0xBD	; 189
     6b6:	9f 4f       	sbci	r25, 0xFF	; 255
     6b8:	20 e7       	ldi	r18, 0x70	; 112
     6ba:	31 e0       	ldi	r19, 0x01	; 1
     6bc:	fc 01       	movw	r30, r24
     6be:	31 83       	std	Z+1, r19	; 0x01
     6c0:	20 83       	st	Z, r18
     6c2:	ce 01       	movw	r24, r28
     6c4:	8d 5b       	subi	r24, 0xBD	; 189
     6c6:	9f 4f       	sbci	r25, 0xFF	; 255
     6c8:	fc 01       	movw	r30, r24
     6ca:	80 81       	ld	r24, Z
     6cc:	91 81       	ldd	r25, Z+1	; 0x01
     6ce:	01 97       	sbiw	r24, 0x01	; 1
     6d0:	f1 f7       	brne	.-4      	; 0x6ce <lcd_set_4bit+0x524>
     6d2:	9e 01       	movw	r18, r28
     6d4:	2d 5b       	subi	r18, 0xBD	; 189
     6d6:	3f 4f       	sbci	r19, 0xFF	; 255
     6d8:	f9 01       	movw	r30, r18
     6da:	91 83       	std	Z+1, r25	; 0x01
     6dc:	80 83       	st	Z, r24
     6de:	ce 01       	movw	r24, r28
     6e0:	8f 5b       	subi	r24, 0xBF	; 191
     6e2:	9f 4f       	sbci	r25, 0xFF	; 255
     6e4:	9e 01       	movw	r18, r28
     6e6:	2f 5b       	subi	r18, 0xBF	; 191
     6e8:	3f 4f       	sbci	r19, 0xFF	; 255
     6ea:	f9 01       	movw	r30, r18
     6ec:	20 81       	ld	r18, Z
     6ee:	31 81       	ldd	r19, Z+1	; 0x01
     6f0:	21 50       	subi	r18, 0x01	; 1
     6f2:	31 09       	sbc	r19, r1
     6f4:	fc 01       	movw	r30, r24
     6f6:	31 83       	std	Z+1, r19	; 0x01
     6f8:	20 83       	st	Z, r18
     6fa:	ce 01       	movw	r24, r28
     6fc:	8f 5b       	subi	r24, 0xBF	; 191
     6fe:	9f 4f       	sbci	r25, 0xFF	; 255
     700:	fc 01       	movw	r30, r24
     702:	80 81       	ld	r24, Z
     704:	91 81       	ldd	r25, Z+1	; 0x01
     706:	00 97       	sbiw	r24, 0x00	; 0
     708:	a1 f6       	brne	.-88     	; 0x6b2 <lcd_set_4bit+0x508>
     70a:	2b c0       	rjmp	.+86     	; 0x762 <lcd_set_4bit+0x5b8>
     70c:	8e 01       	movw	r16, r28
     70e:	0f 5b       	subi	r16, 0xBF	; 191
     710:	1f 4f       	sbci	r17, 0xFF	; 255
     712:	ce 01       	movw	r24, r28
     714:	cd 96       	adiw	r24, 0x3d	; 61
     716:	fc 01       	movw	r30, r24
     718:	60 81       	ld	r22, Z
     71a:	71 81       	ldd	r23, Z+1	; 0x01
     71c:	82 81       	ldd	r24, Z+2	; 0x02
     71e:	93 81       	ldd	r25, Z+3	; 0x03
     720:	0e 94 7e 20 	call	0x40fc	; 0x40fc <__fixunssfsi>
     724:	dc 01       	movw	r26, r24
     726:	cb 01       	movw	r24, r22
     728:	f8 01       	movw	r30, r16
     72a:	91 83       	std	Z+1, r25	; 0x01
     72c:	80 83       	st	Z, r24
     72e:	ce 01       	movw	r24, r28
     730:	8b 5b       	subi	r24, 0xBB	; 187
     732:	9f 4f       	sbci	r25, 0xFF	; 255
     734:	9e 01       	movw	r18, r28
     736:	2f 5b       	subi	r18, 0xBF	; 191
     738:	3f 4f       	sbci	r19, 0xFF	; 255
     73a:	f9 01       	movw	r30, r18
     73c:	20 81       	ld	r18, Z
     73e:	31 81       	ldd	r19, Z+1	; 0x01
     740:	fc 01       	movw	r30, r24
     742:	31 83       	std	Z+1, r19	; 0x01
     744:	20 83       	st	Z, r18
     746:	ce 01       	movw	r24, r28
     748:	8b 5b       	subi	r24, 0xBB	; 187
     74a:	9f 4f       	sbci	r25, 0xFF	; 255
     74c:	fc 01       	movw	r30, r24
     74e:	80 81       	ld	r24, Z
     750:	91 81       	ldd	r25, Z+1	; 0x01
     752:	01 97       	sbiw	r24, 0x01	; 1
     754:	f1 f7       	brne	.-4      	; 0x752 <lcd_set_4bit+0x5a8>
     756:	9e 01       	movw	r18, r28
     758:	2b 5b       	subi	r18, 0xBB	; 187
     75a:	3f 4f       	sbci	r19, 0xFF	; 255
     75c:	f9 01       	movw	r30, r18
     75e:	91 83       	std	Z+1, r25	; 0x01
     760:	80 83       	st	Z, r24
     762:	88 e2       	ldi	r24, 0x28	; 40
     764:	90 e0       	ldi	r25, 0x00	; 0
     766:	28 e2       	ldi	r18, 0x28	; 40
     768:	30 e0       	ldi	r19, 0x00	; 0
     76a:	f9 01       	movw	r30, r18
     76c:	20 81       	ld	r18, Z
     76e:	2e 7f       	andi	r18, 0xFE	; 254
     770:	fc 01       	movw	r30, r24
     772:	20 83       	st	Z, r18
     774:	88 e2       	ldi	r24, 0x28	; 40
     776:	90 e0       	ldi	r25, 0x00	; 0
     778:	28 e2       	ldi	r18, 0x28	; 40
     77a:	30 e0       	ldi	r19, 0x00	; 0
     77c:	f9 01       	movw	r30, r18
     77e:	20 81       	ld	r18, Z
     780:	2d 7f       	andi	r18, 0xFD	; 253
     782:	fc 01       	movw	r30, r24
     784:	20 83       	st	Z, r18
     786:	88 e2       	ldi	r24, 0x28	; 40
     788:	90 e0       	ldi	r25, 0x00	; 0
     78a:	20 e3       	ldi	r18, 0x30	; 48
     78c:	fc 01       	movw	r30, r24
     78e:	20 83       	st	Z, r18
     790:	88 e2       	ldi	r24, 0x28	; 40
     792:	90 e0       	ldi	r25, 0x00	; 0
     794:	28 e2       	ldi	r18, 0x28	; 40
     796:	30 e0       	ldi	r19, 0x00	; 0
     798:	f9 01       	movw	r30, r18
     79a:	20 81       	ld	r18, Z
     79c:	24 60       	ori	r18, 0x04	; 4
     79e:	fc 01       	movw	r30, r24
     7a0:	20 83       	st	Z, r18
     7a2:	9e 01       	movw	r18, r28
     7a4:	29 5b       	subi	r18, 0xB9	; 185
     7a6:	3f 4f       	sbci	r19, 0xFF	; 255
     7a8:	80 e0       	ldi	r24, 0x00	; 0
     7aa:	90 e0       	ldi	r25, 0x00	; 0
     7ac:	a0 ea       	ldi	r26, 0xA0	; 160
     7ae:	b0 e4       	ldi	r27, 0x40	; 64
     7b0:	f9 01       	movw	r30, r18
     7b2:	80 83       	st	Z, r24
     7b4:	91 83       	std	Z+1, r25	; 0x01
     7b6:	a2 83       	std	Z+2, r26	; 0x02
     7b8:	b3 83       	std	Z+3, r27	; 0x03
     7ba:	8e 01       	movw	r16, r28
     7bc:	05 5b       	subi	r16, 0xB5	; 181
     7be:	1f 4f       	sbci	r17, 0xFF	; 255
     7c0:	ce 01       	movw	r24, r28
     7c2:	89 5b       	subi	r24, 0xB9	; 185
     7c4:	9f 4f       	sbci	r25, 0xFF	; 255
     7c6:	26 e6       	ldi	r18, 0x66	; 102
     7c8:	36 e6       	ldi	r19, 0x66	; 102
     7ca:	46 e6       	ldi	r20, 0x66	; 102
     7cc:	55 e4       	ldi	r21, 0x45	; 69
     7ce:	fc 01       	movw	r30, r24
     7d0:	60 81       	ld	r22, Z
     7d2:	71 81       	ldd	r23, Z+1	; 0x01
     7d4:	82 81       	ldd	r24, Z+2	; 0x02
     7d6:	93 81       	ldd	r25, Z+3	; 0x03
     7d8:	0e 94 60 21 	call	0x42c0	; 0x42c0 <__mulsf3>
     7dc:	dc 01       	movw	r26, r24
     7de:	cb 01       	movw	r24, r22
     7e0:	f8 01       	movw	r30, r16
     7e2:	80 83       	st	Z, r24
     7e4:	91 83       	std	Z+1, r25	; 0x01
     7e6:	a2 83       	std	Z+2, r26	; 0x02
     7e8:	b3 83       	std	Z+3, r27	; 0x03
     7ea:	ce 01       	movw	r24, r28
     7ec:	85 5b       	subi	r24, 0xB5	; 181
     7ee:	9f 4f       	sbci	r25, 0xFF	; 255
     7f0:	20 e0       	ldi	r18, 0x00	; 0
     7f2:	30 e0       	ldi	r19, 0x00	; 0
     7f4:	40 e8       	ldi	r20, 0x80	; 128
     7f6:	5f e3       	ldi	r21, 0x3F	; 63
     7f8:	fc 01       	movw	r30, r24
     7fa:	60 81       	ld	r22, Z
     7fc:	71 81       	ldd	r23, Z+1	; 0x01
     7fe:	82 81       	ldd	r24, Z+2	; 0x02
     800:	93 81       	ldd	r25, Z+3	; 0x03
     802:	0e 94 0d 20 	call	0x401a	; 0x401a <__cmpsf2>
     806:	88 23       	and	r24, r24
     808:	4c f4       	brge	.+18     	; 0x81c <lcd_set_4bit+0x672>
     80a:	ce 01       	movw	r24, r28
     80c:	81 5b       	subi	r24, 0xB1	; 177
     80e:	9f 4f       	sbci	r25, 0xFF	; 255
     810:	21 e0       	ldi	r18, 0x01	; 1
     812:	30 e0       	ldi	r19, 0x00	; 0
     814:	fc 01       	movw	r30, r24
     816:	31 83       	std	Z+1, r19	; 0x01
     818:	20 83       	st	Z, r18
     81a:	6d c0       	rjmp	.+218    	; 0x8f6 <lcd_set_4bit+0x74c>
     81c:	ce 01       	movw	r24, r28
     81e:	85 5b       	subi	r24, 0xB5	; 181
     820:	9f 4f       	sbci	r25, 0xFF	; 255
     822:	20 e0       	ldi	r18, 0x00	; 0
     824:	3f ef       	ldi	r19, 0xFF	; 255
     826:	4f e7       	ldi	r20, 0x7F	; 127
     828:	57 e4       	ldi	r21, 0x47	; 71
     82a:	fc 01       	movw	r30, r24
     82c:	60 81       	ld	r22, Z
     82e:	71 81       	ldd	r23, Z+1	; 0x01
     830:	82 81       	ldd	r24, Z+2	; 0x02
     832:	93 81       	ldd	r25, Z+3	; 0x03
     834:	0e 94 5c 21 	call	0x42b8	; 0x42b8 <__gesf2>
     838:	18 16       	cp	r1, r24
     83a:	0c f0       	brlt	.+2      	; 0x83e <lcd_set_4bit+0x694>
     83c:	4a c0       	rjmp	.+148    	; 0x8d2 <lcd_set_4bit+0x728>
     83e:	ce 01       	movw	r24, r28
     840:	89 5b       	subi	r24, 0xB9	; 185
     842:	9f 4f       	sbci	r25, 0xFF	; 255
     844:	20 e0       	ldi	r18, 0x00	; 0
     846:	30 e0       	ldi	r19, 0x00	; 0
     848:	40 e2       	ldi	r20, 0x20	; 32
     84a:	51 e4       	ldi	r21, 0x41	; 65
     84c:	fc 01       	movw	r30, r24
     84e:	60 81       	ld	r22, Z
     850:	71 81       	ldd	r23, Z+1	; 0x01
     852:	82 81       	ldd	r24, Z+2	; 0x02
     854:	93 81       	ldd	r25, Z+3	; 0x03
     856:	0e 94 60 21 	call	0x42c0	; 0x42c0 <__mulsf3>
     85a:	dc 01       	movw	r26, r24
     85c:	cb 01       	movw	r24, r22
     85e:	8e 01       	movw	r16, r28
     860:	01 5b       	subi	r16, 0xB1	; 177
     862:	1f 4f       	sbci	r17, 0xFF	; 255
     864:	bc 01       	movw	r22, r24
     866:	cd 01       	movw	r24, r26
     868:	0e 94 7e 20 	call	0x40fc	; 0x40fc <__fixunssfsi>
     86c:	dc 01       	movw	r26, r24
     86e:	cb 01       	movw	r24, r22
     870:	f8 01       	movw	r30, r16
     872:	91 83       	std	Z+1, r25	; 0x01
     874:	80 83       	st	Z, r24
     876:	24 c0       	rjmp	.+72     	; 0x8c0 <lcd_set_4bit+0x716>
     878:	ce 01       	movw	r24, r28
     87a:	8f 5a       	subi	r24, 0xAF	; 175
     87c:	9f 4f       	sbci	r25, 0xFF	; 255
     87e:	20 e7       	ldi	r18, 0x70	; 112
     880:	31 e0       	ldi	r19, 0x01	; 1
     882:	fc 01       	movw	r30, r24
     884:	31 83       	std	Z+1, r19	; 0x01
     886:	20 83       	st	Z, r18
     888:	ce 01       	movw	r24, r28
     88a:	8f 5a       	subi	r24, 0xAF	; 175
     88c:	9f 4f       	sbci	r25, 0xFF	; 255
     88e:	fc 01       	movw	r30, r24
     890:	80 81       	ld	r24, Z
     892:	91 81       	ldd	r25, Z+1	; 0x01
     894:	01 97       	sbiw	r24, 0x01	; 1
     896:	f1 f7       	brne	.-4      	; 0x894 <lcd_set_4bit+0x6ea>
     898:	9e 01       	movw	r18, r28
     89a:	2f 5a       	subi	r18, 0xAF	; 175
     89c:	3f 4f       	sbci	r19, 0xFF	; 255
     89e:	f9 01       	movw	r30, r18
     8a0:	91 83       	std	Z+1, r25	; 0x01
     8a2:	80 83       	st	Z, r24
     8a4:	ce 01       	movw	r24, r28
     8a6:	81 5b       	subi	r24, 0xB1	; 177
     8a8:	9f 4f       	sbci	r25, 0xFF	; 255
     8aa:	9e 01       	movw	r18, r28
     8ac:	21 5b       	subi	r18, 0xB1	; 177
     8ae:	3f 4f       	sbci	r19, 0xFF	; 255
     8b0:	f9 01       	movw	r30, r18
     8b2:	20 81       	ld	r18, Z
     8b4:	31 81       	ldd	r19, Z+1	; 0x01
     8b6:	21 50       	subi	r18, 0x01	; 1
     8b8:	31 09       	sbc	r19, r1
     8ba:	fc 01       	movw	r30, r24
     8bc:	31 83       	std	Z+1, r19	; 0x01
     8be:	20 83       	st	Z, r18
     8c0:	ce 01       	movw	r24, r28
     8c2:	81 5b       	subi	r24, 0xB1	; 177
     8c4:	9f 4f       	sbci	r25, 0xFF	; 255
     8c6:	fc 01       	movw	r30, r24
     8c8:	80 81       	ld	r24, Z
     8ca:	91 81       	ldd	r25, Z+1	; 0x01
     8cc:	00 97       	sbiw	r24, 0x00	; 0
     8ce:	a1 f6       	brne	.-88     	; 0x878 <lcd_set_4bit+0x6ce>
     8d0:	2c c0       	rjmp	.+88     	; 0x92a <lcd_set_4bit+0x780>
     8d2:	8e 01       	movw	r16, r28
     8d4:	01 5b       	subi	r16, 0xB1	; 177
     8d6:	1f 4f       	sbci	r17, 0xFF	; 255
     8d8:	ce 01       	movw	r24, r28
     8da:	85 5b       	subi	r24, 0xB5	; 181
     8dc:	9f 4f       	sbci	r25, 0xFF	; 255
     8de:	fc 01       	movw	r30, r24
     8e0:	60 81       	ld	r22, Z
     8e2:	71 81       	ldd	r23, Z+1	; 0x01
     8e4:	82 81       	ldd	r24, Z+2	; 0x02
     8e6:	93 81       	ldd	r25, Z+3	; 0x03
     8e8:	0e 94 7e 20 	call	0x40fc	; 0x40fc <__fixunssfsi>
     8ec:	dc 01       	movw	r26, r24
     8ee:	cb 01       	movw	r24, r22
     8f0:	f8 01       	movw	r30, r16
     8f2:	91 83       	std	Z+1, r25	; 0x01
     8f4:	80 83       	st	Z, r24
     8f6:	ce 01       	movw	r24, r28
     8f8:	8d 5a       	subi	r24, 0xAD	; 173
     8fa:	9f 4f       	sbci	r25, 0xFF	; 255
     8fc:	9e 01       	movw	r18, r28
     8fe:	21 5b       	subi	r18, 0xB1	; 177
     900:	3f 4f       	sbci	r19, 0xFF	; 255
     902:	f9 01       	movw	r30, r18
     904:	20 81       	ld	r18, Z
     906:	31 81       	ldd	r19, Z+1	; 0x01
     908:	fc 01       	movw	r30, r24
     90a:	31 83       	std	Z+1, r19	; 0x01
     90c:	20 83       	st	Z, r18
     90e:	ce 01       	movw	r24, r28
     910:	8d 5a       	subi	r24, 0xAD	; 173
     912:	9f 4f       	sbci	r25, 0xFF	; 255
     914:	fc 01       	movw	r30, r24
     916:	80 81       	ld	r24, Z
     918:	91 81       	ldd	r25, Z+1	; 0x01
     91a:	01 97       	sbiw	r24, 0x01	; 1
     91c:	f1 f7       	brne	.-4      	; 0x91a <lcd_set_4bit+0x770>
     91e:	9e 01       	movw	r18, r28
     920:	2d 5a       	subi	r18, 0xAD	; 173
     922:	3f 4f       	sbci	r19, 0xFF	; 255
     924:	f9 01       	movw	r30, r18
     926:	91 83       	std	Z+1, r25	; 0x01
     928:	80 83       	st	Z, r24
     92a:	88 e2       	ldi	r24, 0x28	; 40
     92c:	90 e0       	ldi	r25, 0x00	; 0
     92e:	28 e2       	ldi	r18, 0x28	; 40
     930:	30 e0       	ldi	r19, 0x00	; 0
     932:	f9 01       	movw	r30, r18
     934:	20 81       	ld	r18, Z
     936:	2b 7f       	andi	r18, 0xFB	; 251
     938:	fc 01       	movw	r30, r24
     93a:	20 83       	st	Z, r18
     93c:	9e 01       	movw	r18, r28
     93e:	2b 5a       	subi	r18, 0xAB	; 171
     940:	3f 4f       	sbci	r19, 0xFF	; 255
     942:	80 e0       	ldi	r24, 0x00	; 0
     944:	90 e0       	ldi	r25, 0x00	; 0
     946:	a0 e8       	ldi	r26, 0x80	; 128
     948:	bf e3       	ldi	r27, 0x3F	; 63
     94a:	f9 01       	movw	r30, r18
     94c:	80 83       	st	Z, r24
     94e:	91 83       	std	Z+1, r25	; 0x01
     950:	a2 83       	std	Z+2, r26	; 0x02
     952:	b3 83       	std	Z+3, r27	; 0x03
     954:	8e 01       	movw	r16, r28
     956:	07 5a       	subi	r16, 0xA7	; 167
     958:	1f 4f       	sbci	r17, 0xFF	; 255
     95a:	ce 01       	movw	r24, r28
     95c:	8b 5a       	subi	r24, 0xAB	; 171
     95e:	9f 4f       	sbci	r25, 0xFF	; 255
     960:	26 e6       	ldi	r18, 0x66	; 102
     962:	36 e6       	ldi	r19, 0x66	; 102
     964:	46 e6       	ldi	r20, 0x66	; 102
     966:	55 e4       	ldi	r21, 0x45	; 69
     968:	fc 01       	movw	r30, r24
     96a:	60 81       	ld	r22, Z
     96c:	71 81       	ldd	r23, Z+1	; 0x01
     96e:	82 81       	ldd	r24, Z+2	; 0x02
     970:	93 81       	ldd	r25, Z+3	; 0x03
     972:	0e 94 60 21 	call	0x42c0	; 0x42c0 <__mulsf3>
     976:	dc 01       	movw	r26, r24
     978:	cb 01       	movw	r24, r22
     97a:	f8 01       	movw	r30, r16
     97c:	80 83       	st	Z, r24
     97e:	91 83       	std	Z+1, r25	; 0x01
     980:	a2 83       	std	Z+2, r26	; 0x02
     982:	b3 83       	std	Z+3, r27	; 0x03
     984:	ce 01       	movw	r24, r28
     986:	87 5a       	subi	r24, 0xA7	; 167
     988:	9f 4f       	sbci	r25, 0xFF	; 255
     98a:	20 e0       	ldi	r18, 0x00	; 0
     98c:	30 e0       	ldi	r19, 0x00	; 0
     98e:	40 e8       	ldi	r20, 0x80	; 128
     990:	5f e3       	ldi	r21, 0x3F	; 63
     992:	fc 01       	movw	r30, r24
     994:	60 81       	ld	r22, Z
     996:	71 81       	ldd	r23, Z+1	; 0x01
     998:	82 81       	ldd	r24, Z+2	; 0x02
     99a:	93 81       	ldd	r25, Z+3	; 0x03
     99c:	0e 94 0d 20 	call	0x401a	; 0x401a <__cmpsf2>
     9a0:	88 23       	and	r24, r24
     9a2:	4c f4       	brge	.+18     	; 0x9b6 <lcd_set_4bit+0x80c>
     9a4:	ce 01       	movw	r24, r28
     9a6:	83 5a       	subi	r24, 0xA3	; 163
     9a8:	9f 4f       	sbci	r25, 0xFF	; 255
     9aa:	21 e0       	ldi	r18, 0x01	; 1
     9ac:	30 e0       	ldi	r19, 0x00	; 0
     9ae:	fc 01       	movw	r30, r24
     9b0:	31 83       	std	Z+1, r19	; 0x01
     9b2:	20 83       	st	Z, r18
     9b4:	6d c0       	rjmp	.+218    	; 0xa90 <lcd_set_4bit+0x8e6>
     9b6:	ce 01       	movw	r24, r28
     9b8:	87 5a       	subi	r24, 0xA7	; 167
     9ba:	9f 4f       	sbci	r25, 0xFF	; 255
     9bc:	20 e0       	ldi	r18, 0x00	; 0
     9be:	3f ef       	ldi	r19, 0xFF	; 255
     9c0:	4f e7       	ldi	r20, 0x7F	; 127
     9c2:	57 e4       	ldi	r21, 0x47	; 71
     9c4:	fc 01       	movw	r30, r24
     9c6:	60 81       	ld	r22, Z
     9c8:	71 81       	ldd	r23, Z+1	; 0x01
     9ca:	82 81       	ldd	r24, Z+2	; 0x02
     9cc:	93 81       	ldd	r25, Z+3	; 0x03
     9ce:	0e 94 5c 21 	call	0x42b8	; 0x42b8 <__gesf2>
     9d2:	18 16       	cp	r1, r24
     9d4:	0c f0       	brlt	.+2      	; 0x9d8 <lcd_set_4bit+0x82e>
     9d6:	4a c0       	rjmp	.+148    	; 0xa6c <lcd_set_4bit+0x8c2>
     9d8:	ce 01       	movw	r24, r28
     9da:	8b 5a       	subi	r24, 0xAB	; 171
     9dc:	9f 4f       	sbci	r25, 0xFF	; 255
     9de:	20 e0       	ldi	r18, 0x00	; 0
     9e0:	30 e0       	ldi	r19, 0x00	; 0
     9e2:	40 e2       	ldi	r20, 0x20	; 32
     9e4:	51 e4       	ldi	r21, 0x41	; 65
     9e6:	fc 01       	movw	r30, r24
     9e8:	60 81       	ld	r22, Z
     9ea:	71 81       	ldd	r23, Z+1	; 0x01
     9ec:	82 81       	ldd	r24, Z+2	; 0x02
     9ee:	93 81       	ldd	r25, Z+3	; 0x03
     9f0:	0e 94 60 21 	call	0x42c0	; 0x42c0 <__mulsf3>
     9f4:	dc 01       	movw	r26, r24
     9f6:	cb 01       	movw	r24, r22
     9f8:	8e 01       	movw	r16, r28
     9fa:	03 5a       	subi	r16, 0xA3	; 163
     9fc:	1f 4f       	sbci	r17, 0xFF	; 255
     9fe:	bc 01       	movw	r22, r24
     a00:	cd 01       	movw	r24, r26
     a02:	0e 94 7e 20 	call	0x40fc	; 0x40fc <__fixunssfsi>
     a06:	dc 01       	movw	r26, r24
     a08:	cb 01       	movw	r24, r22
     a0a:	f8 01       	movw	r30, r16
     a0c:	91 83       	std	Z+1, r25	; 0x01
     a0e:	80 83       	st	Z, r24
     a10:	24 c0       	rjmp	.+72     	; 0xa5a <lcd_set_4bit+0x8b0>
     a12:	ce 01       	movw	r24, r28
     a14:	81 5a       	subi	r24, 0xA1	; 161
     a16:	9f 4f       	sbci	r25, 0xFF	; 255
     a18:	20 e7       	ldi	r18, 0x70	; 112
     a1a:	31 e0       	ldi	r19, 0x01	; 1
     a1c:	fc 01       	movw	r30, r24
     a1e:	31 83       	std	Z+1, r19	; 0x01
     a20:	20 83       	st	Z, r18
     a22:	ce 01       	movw	r24, r28
     a24:	81 5a       	subi	r24, 0xA1	; 161
     a26:	9f 4f       	sbci	r25, 0xFF	; 255
     a28:	fc 01       	movw	r30, r24
     a2a:	80 81       	ld	r24, Z
     a2c:	91 81       	ldd	r25, Z+1	; 0x01
     a2e:	01 97       	sbiw	r24, 0x01	; 1
     a30:	f1 f7       	brne	.-4      	; 0xa2e <lcd_set_4bit+0x884>
     a32:	9e 01       	movw	r18, r28
     a34:	21 5a       	subi	r18, 0xA1	; 161
     a36:	3f 4f       	sbci	r19, 0xFF	; 255
     a38:	f9 01       	movw	r30, r18
     a3a:	91 83       	std	Z+1, r25	; 0x01
     a3c:	80 83       	st	Z, r24
     a3e:	ce 01       	movw	r24, r28
     a40:	83 5a       	subi	r24, 0xA3	; 163
     a42:	9f 4f       	sbci	r25, 0xFF	; 255
     a44:	9e 01       	movw	r18, r28
     a46:	23 5a       	subi	r18, 0xA3	; 163
     a48:	3f 4f       	sbci	r19, 0xFF	; 255
     a4a:	f9 01       	movw	r30, r18
     a4c:	20 81       	ld	r18, Z
     a4e:	31 81       	ldd	r19, Z+1	; 0x01
     a50:	21 50       	subi	r18, 0x01	; 1
     a52:	31 09       	sbc	r19, r1
     a54:	fc 01       	movw	r30, r24
     a56:	31 83       	std	Z+1, r19	; 0x01
     a58:	20 83       	st	Z, r18
     a5a:	ce 01       	movw	r24, r28
     a5c:	83 5a       	subi	r24, 0xA3	; 163
     a5e:	9f 4f       	sbci	r25, 0xFF	; 255
     a60:	fc 01       	movw	r30, r24
     a62:	80 81       	ld	r24, Z
     a64:	91 81       	ldd	r25, Z+1	; 0x01
     a66:	00 97       	sbiw	r24, 0x00	; 0
     a68:	a1 f6       	brne	.-88     	; 0xa12 <lcd_set_4bit+0x868>
     a6a:	2c c0       	rjmp	.+88     	; 0xac4 <lcd_set_4bit+0x91a>
     a6c:	8e 01       	movw	r16, r28
     a6e:	03 5a       	subi	r16, 0xA3	; 163
     a70:	1f 4f       	sbci	r17, 0xFF	; 255
     a72:	ce 01       	movw	r24, r28
     a74:	87 5a       	subi	r24, 0xA7	; 167
     a76:	9f 4f       	sbci	r25, 0xFF	; 255
     a78:	fc 01       	movw	r30, r24
     a7a:	60 81       	ld	r22, Z
     a7c:	71 81       	ldd	r23, Z+1	; 0x01
     a7e:	82 81       	ldd	r24, Z+2	; 0x02
     a80:	93 81       	ldd	r25, Z+3	; 0x03
     a82:	0e 94 7e 20 	call	0x40fc	; 0x40fc <__fixunssfsi>
     a86:	dc 01       	movw	r26, r24
     a88:	cb 01       	movw	r24, r22
     a8a:	f8 01       	movw	r30, r16
     a8c:	91 83       	std	Z+1, r25	; 0x01
     a8e:	80 83       	st	Z, r24
     a90:	ce 01       	movw	r24, r28
     a92:	8f 59       	subi	r24, 0x9F	; 159
     a94:	9f 4f       	sbci	r25, 0xFF	; 255
     a96:	9e 01       	movw	r18, r28
     a98:	23 5a       	subi	r18, 0xA3	; 163
     a9a:	3f 4f       	sbci	r19, 0xFF	; 255
     a9c:	f9 01       	movw	r30, r18
     a9e:	20 81       	ld	r18, Z
     aa0:	31 81       	ldd	r19, Z+1	; 0x01
     aa2:	fc 01       	movw	r30, r24
     aa4:	31 83       	std	Z+1, r19	; 0x01
     aa6:	20 83       	st	Z, r18
     aa8:	ce 01       	movw	r24, r28
     aaa:	8f 59       	subi	r24, 0x9F	; 159
     aac:	9f 4f       	sbci	r25, 0xFF	; 255
     aae:	fc 01       	movw	r30, r24
     ab0:	80 81       	ld	r24, Z
     ab2:	91 81       	ldd	r25, Z+1	; 0x01
     ab4:	01 97       	sbiw	r24, 0x01	; 1
     ab6:	f1 f7       	brne	.-4      	; 0xab4 <lcd_set_4bit+0x90a>
     ab8:	9e 01       	movw	r18, r28
     aba:	2f 59       	subi	r18, 0x9F	; 159
     abc:	3f 4f       	sbci	r19, 0xFF	; 255
     abe:	f9 01       	movw	r30, r18
     ac0:	91 83       	std	Z+1, r25	; 0x01
     ac2:	80 83       	st	Z, r24
     ac4:	88 e2       	ldi	r24, 0x28	; 40
     ac6:	90 e0       	ldi	r25, 0x00	; 0
     ac8:	28 e2       	ldi	r18, 0x28	; 40
     aca:	30 e0       	ldi	r19, 0x00	; 0
     acc:	f9 01       	movw	r30, r18
     ace:	20 81       	ld	r18, Z
     ad0:	2e 7f       	andi	r18, 0xFE	; 254
     ad2:	fc 01       	movw	r30, r24
     ad4:	20 83       	st	Z, r18
     ad6:	88 e2       	ldi	r24, 0x28	; 40
     ad8:	90 e0       	ldi	r25, 0x00	; 0
     ada:	28 e2       	ldi	r18, 0x28	; 40
     adc:	30 e0       	ldi	r19, 0x00	; 0
     ade:	f9 01       	movw	r30, r18
     ae0:	20 81       	ld	r18, Z
     ae2:	2d 7f       	andi	r18, 0xFD	; 253
     ae4:	fc 01       	movw	r30, r24
     ae6:	20 83       	st	Z, r18
     ae8:	88 e2       	ldi	r24, 0x28	; 40
     aea:	90 e0       	ldi	r25, 0x00	; 0
     aec:	20 e2       	ldi	r18, 0x20	; 32
     aee:	fc 01       	movw	r30, r24
     af0:	20 83       	st	Z, r18
     af2:	88 e2       	ldi	r24, 0x28	; 40
     af4:	90 e0       	ldi	r25, 0x00	; 0
     af6:	28 e2       	ldi	r18, 0x28	; 40
     af8:	30 e0       	ldi	r19, 0x00	; 0
     afa:	f9 01       	movw	r30, r18
     afc:	20 81       	ld	r18, Z
     afe:	24 60       	ori	r18, 0x04	; 4
     b00:	fc 01       	movw	r30, r24
     b02:	20 83       	st	Z, r18
     b04:	9e 01       	movw	r18, r28
     b06:	2d 59       	subi	r18, 0x9D	; 157
     b08:	3f 4f       	sbci	r19, 0xFF	; 255
     b0a:	80 e0       	ldi	r24, 0x00	; 0
     b0c:	90 e0       	ldi	r25, 0x00	; 0
     b0e:	a0 ea       	ldi	r26, 0xA0	; 160
     b10:	b0 e4       	ldi	r27, 0x40	; 64
     b12:	f9 01       	movw	r30, r18
     b14:	80 83       	st	Z, r24
     b16:	91 83       	std	Z+1, r25	; 0x01
     b18:	a2 83       	std	Z+2, r26	; 0x02
     b1a:	b3 83       	std	Z+3, r27	; 0x03
     b1c:	8e 01       	movw	r16, r28
     b1e:	09 59       	subi	r16, 0x99	; 153
     b20:	1f 4f       	sbci	r17, 0xFF	; 255
     b22:	ce 01       	movw	r24, r28
     b24:	8d 59       	subi	r24, 0x9D	; 157
     b26:	9f 4f       	sbci	r25, 0xFF	; 255
     b28:	26 e6       	ldi	r18, 0x66	; 102
     b2a:	36 e6       	ldi	r19, 0x66	; 102
     b2c:	46 e6       	ldi	r20, 0x66	; 102
     b2e:	55 e4       	ldi	r21, 0x45	; 69
     b30:	fc 01       	movw	r30, r24
     b32:	60 81       	ld	r22, Z
     b34:	71 81       	ldd	r23, Z+1	; 0x01
     b36:	82 81       	ldd	r24, Z+2	; 0x02
     b38:	93 81       	ldd	r25, Z+3	; 0x03
     b3a:	0e 94 60 21 	call	0x42c0	; 0x42c0 <__mulsf3>
     b3e:	dc 01       	movw	r26, r24
     b40:	cb 01       	movw	r24, r22
     b42:	f8 01       	movw	r30, r16
     b44:	80 83       	st	Z, r24
     b46:	91 83       	std	Z+1, r25	; 0x01
     b48:	a2 83       	std	Z+2, r26	; 0x02
     b4a:	b3 83       	std	Z+3, r27	; 0x03
     b4c:	ce 01       	movw	r24, r28
     b4e:	89 59       	subi	r24, 0x99	; 153
     b50:	9f 4f       	sbci	r25, 0xFF	; 255
     b52:	20 e0       	ldi	r18, 0x00	; 0
     b54:	30 e0       	ldi	r19, 0x00	; 0
     b56:	40 e8       	ldi	r20, 0x80	; 128
     b58:	5f e3       	ldi	r21, 0x3F	; 63
     b5a:	fc 01       	movw	r30, r24
     b5c:	60 81       	ld	r22, Z
     b5e:	71 81       	ldd	r23, Z+1	; 0x01
     b60:	82 81       	ldd	r24, Z+2	; 0x02
     b62:	93 81       	ldd	r25, Z+3	; 0x03
     b64:	0e 94 0d 20 	call	0x401a	; 0x401a <__cmpsf2>
     b68:	88 23       	and	r24, r24
     b6a:	4c f4       	brge	.+18     	; 0xb7e <lcd_set_4bit+0x9d4>
     b6c:	ce 01       	movw	r24, r28
     b6e:	85 59       	subi	r24, 0x95	; 149
     b70:	9f 4f       	sbci	r25, 0xFF	; 255
     b72:	21 e0       	ldi	r18, 0x01	; 1
     b74:	30 e0       	ldi	r19, 0x00	; 0
     b76:	fc 01       	movw	r30, r24
     b78:	31 83       	std	Z+1, r19	; 0x01
     b7a:	20 83       	st	Z, r18
     b7c:	6d c0       	rjmp	.+218    	; 0xc58 <lcd_set_4bit+0xaae>
     b7e:	ce 01       	movw	r24, r28
     b80:	89 59       	subi	r24, 0x99	; 153
     b82:	9f 4f       	sbci	r25, 0xFF	; 255
     b84:	20 e0       	ldi	r18, 0x00	; 0
     b86:	3f ef       	ldi	r19, 0xFF	; 255
     b88:	4f e7       	ldi	r20, 0x7F	; 127
     b8a:	57 e4       	ldi	r21, 0x47	; 71
     b8c:	fc 01       	movw	r30, r24
     b8e:	60 81       	ld	r22, Z
     b90:	71 81       	ldd	r23, Z+1	; 0x01
     b92:	82 81       	ldd	r24, Z+2	; 0x02
     b94:	93 81       	ldd	r25, Z+3	; 0x03
     b96:	0e 94 5c 21 	call	0x42b8	; 0x42b8 <__gesf2>
     b9a:	18 16       	cp	r1, r24
     b9c:	0c f0       	brlt	.+2      	; 0xba0 <lcd_set_4bit+0x9f6>
     b9e:	4a c0       	rjmp	.+148    	; 0xc34 <lcd_set_4bit+0xa8a>
     ba0:	ce 01       	movw	r24, r28
     ba2:	8d 59       	subi	r24, 0x9D	; 157
     ba4:	9f 4f       	sbci	r25, 0xFF	; 255
     ba6:	20 e0       	ldi	r18, 0x00	; 0
     ba8:	30 e0       	ldi	r19, 0x00	; 0
     baa:	40 e2       	ldi	r20, 0x20	; 32
     bac:	51 e4       	ldi	r21, 0x41	; 65
     bae:	fc 01       	movw	r30, r24
     bb0:	60 81       	ld	r22, Z
     bb2:	71 81       	ldd	r23, Z+1	; 0x01
     bb4:	82 81       	ldd	r24, Z+2	; 0x02
     bb6:	93 81       	ldd	r25, Z+3	; 0x03
     bb8:	0e 94 60 21 	call	0x42c0	; 0x42c0 <__mulsf3>
     bbc:	dc 01       	movw	r26, r24
     bbe:	cb 01       	movw	r24, r22
     bc0:	8e 01       	movw	r16, r28
     bc2:	05 59       	subi	r16, 0x95	; 149
     bc4:	1f 4f       	sbci	r17, 0xFF	; 255
     bc6:	bc 01       	movw	r22, r24
     bc8:	cd 01       	movw	r24, r26
     bca:	0e 94 7e 20 	call	0x40fc	; 0x40fc <__fixunssfsi>
     bce:	dc 01       	movw	r26, r24
     bd0:	cb 01       	movw	r24, r22
     bd2:	f8 01       	movw	r30, r16
     bd4:	91 83       	std	Z+1, r25	; 0x01
     bd6:	80 83       	st	Z, r24
     bd8:	24 c0       	rjmp	.+72     	; 0xc22 <lcd_set_4bit+0xa78>
     bda:	ce 01       	movw	r24, r28
     bdc:	83 59       	subi	r24, 0x93	; 147
     bde:	9f 4f       	sbci	r25, 0xFF	; 255
     be0:	20 e7       	ldi	r18, 0x70	; 112
     be2:	31 e0       	ldi	r19, 0x01	; 1
     be4:	fc 01       	movw	r30, r24
     be6:	31 83       	std	Z+1, r19	; 0x01
     be8:	20 83       	st	Z, r18
     bea:	ce 01       	movw	r24, r28
     bec:	83 59       	subi	r24, 0x93	; 147
     bee:	9f 4f       	sbci	r25, 0xFF	; 255
     bf0:	fc 01       	movw	r30, r24
     bf2:	80 81       	ld	r24, Z
     bf4:	91 81       	ldd	r25, Z+1	; 0x01
     bf6:	01 97       	sbiw	r24, 0x01	; 1
     bf8:	f1 f7       	brne	.-4      	; 0xbf6 <lcd_set_4bit+0xa4c>
     bfa:	9e 01       	movw	r18, r28
     bfc:	23 59       	subi	r18, 0x93	; 147
     bfe:	3f 4f       	sbci	r19, 0xFF	; 255
     c00:	f9 01       	movw	r30, r18
     c02:	91 83       	std	Z+1, r25	; 0x01
     c04:	80 83       	st	Z, r24
     c06:	ce 01       	movw	r24, r28
     c08:	85 59       	subi	r24, 0x95	; 149
     c0a:	9f 4f       	sbci	r25, 0xFF	; 255
     c0c:	9e 01       	movw	r18, r28
     c0e:	25 59       	subi	r18, 0x95	; 149
     c10:	3f 4f       	sbci	r19, 0xFF	; 255
     c12:	f9 01       	movw	r30, r18
     c14:	20 81       	ld	r18, Z
     c16:	31 81       	ldd	r19, Z+1	; 0x01
     c18:	21 50       	subi	r18, 0x01	; 1
     c1a:	31 09       	sbc	r19, r1
     c1c:	fc 01       	movw	r30, r24
     c1e:	31 83       	std	Z+1, r19	; 0x01
     c20:	20 83       	st	Z, r18
     c22:	ce 01       	movw	r24, r28
     c24:	85 59       	subi	r24, 0x95	; 149
     c26:	9f 4f       	sbci	r25, 0xFF	; 255
     c28:	fc 01       	movw	r30, r24
     c2a:	80 81       	ld	r24, Z
     c2c:	91 81       	ldd	r25, Z+1	; 0x01
     c2e:	00 97       	sbiw	r24, 0x00	; 0
     c30:	a1 f6       	brne	.-88     	; 0xbda <lcd_set_4bit+0xa30>
     c32:	2c c0       	rjmp	.+88     	; 0xc8c <lcd_set_4bit+0xae2>
     c34:	8e 01       	movw	r16, r28
     c36:	05 59       	subi	r16, 0x95	; 149
     c38:	1f 4f       	sbci	r17, 0xFF	; 255
     c3a:	ce 01       	movw	r24, r28
     c3c:	89 59       	subi	r24, 0x99	; 153
     c3e:	9f 4f       	sbci	r25, 0xFF	; 255
     c40:	fc 01       	movw	r30, r24
     c42:	60 81       	ld	r22, Z
     c44:	71 81       	ldd	r23, Z+1	; 0x01
     c46:	82 81       	ldd	r24, Z+2	; 0x02
     c48:	93 81       	ldd	r25, Z+3	; 0x03
     c4a:	0e 94 7e 20 	call	0x40fc	; 0x40fc <__fixunssfsi>
     c4e:	dc 01       	movw	r26, r24
     c50:	cb 01       	movw	r24, r22
     c52:	f8 01       	movw	r30, r16
     c54:	91 83       	std	Z+1, r25	; 0x01
     c56:	80 83       	st	Z, r24
     c58:	ce 01       	movw	r24, r28
     c5a:	81 59       	subi	r24, 0x91	; 145
     c5c:	9f 4f       	sbci	r25, 0xFF	; 255
     c5e:	9e 01       	movw	r18, r28
     c60:	25 59       	subi	r18, 0x95	; 149
     c62:	3f 4f       	sbci	r19, 0xFF	; 255
     c64:	f9 01       	movw	r30, r18
     c66:	20 81       	ld	r18, Z
     c68:	31 81       	ldd	r19, Z+1	; 0x01
     c6a:	fc 01       	movw	r30, r24
     c6c:	31 83       	std	Z+1, r19	; 0x01
     c6e:	20 83       	st	Z, r18
     c70:	ce 01       	movw	r24, r28
     c72:	81 59       	subi	r24, 0x91	; 145
     c74:	9f 4f       	sbci	r25, 0xFF	; 255
     c76:	fc 01       	movw	r30, r24
     c78:	80 81       	ld	r24, Z
     c7a:	91 81       	ldd	r25, Z+1	; 0x01
     c7c:	01 97       	sbiw	r24, 0x01	; 1
     c7e:	f1 f7       	brne	.-4      	; 0xc7c <lcd_set_4bit+0xad2>
     c80:	9e 01       	movw	r18, r28
     c82:	21 59       	subi	r18, 0x91	; 145
     c84:	3f 4f       	sbci	r19, 0xFF	; 255
     c86:	f9 01       	movw	r30, r18
     c88:	91 83       	std	Z+1, r25	; 0x01
     c8a:	80 83       	st	Z, r24
     c8c:	88 e2       	ldi	r24, 0x28	; 40
     c8e:	90 e0       	ldi	r25, 0x00	; 0
     c90:	28 e2       	ldi	r18, 0x28	; 40
     c92:	30 e0       	ldi	r19, 0x00	; 0
     c94:	f9 01       	movw	r30, r18
     c96:	20 81       	ld	r18, Z
     c98:	2b 7f       	andi	r18, 0xFB	; 251
     c9a:	fc 01       	movw	r30, r24
     c9c:	20 83       	st	Z, r18
     c9e:	c0 59       	subi	r28, 0x90	; 144
     ca0:	df 4f       	sbci	r29, 0xFF	; 255
     ca2:	0f b6       	in	r0, 0x3f	; 63
     ca4:	f8 94       	cli
     ca6:	de bf       	out	0x3e, r29	; 62
     ca8:	0f be       	out	0x3f, r0	; 63
     caa:	cd bf       	out	0x3d, r28	; 61
     cac:	df 91       	pop	r29
     cae:	cf 91       	pop	r28
     cb0:	1f 91       	pop	r17
     cb2:	0f 91       	pop	r16
     cb4:	08 95       	ret

00000cb6 <lcd_init>:
     cb6:	cf 93       	push	r28
     cb8:	df 93       	push	r29
     cba:	cd b7       	in	r28, 0x3d	; 61
     cbc:	de b7       	in	r29, 0x3e	; 62
     cbe:	2e 97       	sbiw	r28, 0x0e	; 14
     cc0:	0f b6       	in	r0, 0x3f	; 63
     cc2:	f8 94       	cli
     cc4:	de bf       	out	0x3e, r29	; 62
     cc6:	0f be       	out	0x3f, r0	; 63
     cc8:	cd bf       	out	0x3d, r28	; 61
     cca:	80 e0       	ldi	r24, 0x00	; 0
     ccc:	90 e0       	ldi	r25, 0x00	; 0
     cce:	a0 e8       	ldi	r26, 0x80	; 128
     cd0:	bf e3       	ldi	r27, 0x3F	; 63
     cd2:	89 83       	std	Y+1, r24	; 0x01
     cd4:	9a 83       	std	Y+2, r25	; 0x02
     cd6:	ab 83       	std	Y+3, r26	; 0x03
     cd8:	bc 83       	std	Y+4, r27	; 0x04
     cda:	26 e6       	ldi	r18, 0x66	; 102
     cdc:	36 e6       	ldi	r19, 0x66	; 102
     cde:	46 e6       	ldi	r20, 0x66	; 102
     ce0:	55 e4       	ldi	r21, 0x45	; 69
     ce2:	69 81       	ldd	r22, Y+1	; 0x01
     ce4:	7a 81       	ldd	r23, Y+2	; 0x02
     ce6:	8b 81       	ldd	r24, Y+3	; 0x03
     ce8:	9c 81       	ldd	r25, Y+4	; 0x04
     cea:	0e 94 60 21 	call	0x42c0	; 0x42c0 <__mulsf3>
     cee:	dc 01       	movw	r26, r24
     cf0:	cb 01       	movw	r24, r22
     cf2:	8d 83       	std	Y+5, r24	; 0x05
     cf4:	9e 83       	std	Y+6, r25	; 0x06
     cf6:	af 83       	std	Y+7, r26	; 0x07
     cf8:	b8 87       	std	Y+8, r27	; 0x08
     cfa:	20 e0       	ldi	r18, 0x00	; 0
     cfc:	30 e0       	ldi	r19, 0x00	; 0
     cfe:	40 e8       	ldi	r20, 0x80	; 128
     d00:	5f e3       	ldi	r21, 0x3F	; 63
     d02:	6d 81       	ldd	r22, Y+5	; 0x05
     d04:	7e 81       	ldd	r23, Y+6	; 0x06
     d06:	8f 81       	ldd	r24, Y+7	; 0x07
     d08:	98 85       	ldd	r25, Y+8	; 0x08
     d0a:	0e 94 0d 20 	call	0x401a	; 0x401a <__cmpsf2>
     d0e:	88 23       	and	r24, r24
     d10:	2c f4       	brge	.+10     	; 0xd1c <lcd_init+0x66>
     d12:	81 e0       	ldi	r24, 0x01	; 1
     d14:	90 e0       	ldi	r25, 0x00	; 0
     d16:	9a 87       	std	Y+10, r25	; 0x0a
     d18:	89 87       	std	Y+9, r24	; 0x09
     d1a:	3f c0       	rjmp	.+126    	; 0xd9a <lcd_init+0xe4>
     d1c:	20 e0       	ldi	r18, 0x00	; 0
     d1e:	3f ef       	ldi	r19, 0xFF	; 255
     d20:	4f e7       	ldi	r20, 0x7F	; 127
     d22:	57 e4       	ldi	r21, 0x47	; 71
     d24:	6d 81       	ldd	r22, Y+5	; 0x05
     d26:	7e 81       	ldd	r23, Y+6	; 0x06
     d28:	8f 81       	ldd	r24, Y+7	; 0x07
     d2a:	98 85       	ldd	r25, Y+8	; 0x08
     d2c:	0e 94 5c 21 	call	0x42b8	; 0x42b8 <__gesf2>
     d30:	18 16       	cp	r1, r24
     d32:	4c f5       	brge	.+82     	; 0xd86 <lcd_init+0xd0>
     d34:	20 e0       	ldi	r18, 0x00	; 0
     d36:	30 e0       	ldi	r19, 0x00	; 0
     d38:	40 e2       	ldi	r20, 0x20	; 32
     d3a:	51 e4       	ldi	r21, 0x41	; 65
     d3c:	69 81       	ldd	r22, Y+1	; 0x01
     d3e:	7a 81       	ldd	r23, Y+2	; 0x02
     d40:	8b 81       	ldd	r24, Y+3	; 0x03
     d42:	9c 81       	ldd	r25, Y+4	; 0x04
     d44:	0e 94 60 21 	call	0x42c0	; 0x42c0 <__mulsf3>
     d48:	dc 01       	movw	r26, r24
     d4a:	cb 01       	movw	r24, r22
     d4c:	bc 01       	movw	r22, r24
     d4e:	cd 01       	movw	r24, r26
     d50:	0e 94 7e 20 	call	0x40fc	; 0x40fc <__fixunssfsi>
     d54:	dc 01       	movw	r26, r24
     d56:	cb 01       	movw	r24, r22
     d58:	9a 87       	std	Y+10, r25	; 0x0a
     d5a:	89 87       	std	Y+9, r24	; 0x09
     d5c:	0f c0       	rjmp	.+30     	; 0xd7c <lcd_init+0xc6>
     d5e:	80 e7       	ldi	r24, 0x70	; 112
     d60:	91 e0       	ldi	r25, 0x01	; 1
     d62:	9c 87       	std	Y+12, r25	; 0x0c
     d64:	8b 87       	std	Y+11, r24	; 0x0b
     d66:	8b 85       	ldd	r24, Y+11	; 0x0b
     d68:	9c 85       	ldd	r25, Y+12	; 0x0c
     d6a:	01 97       	sbiw	r24, 0x01	; 1
     d6c:	f1 f7       	brne	.-4      	; 0xd6a <lcd_init+0xb4>
     d6e:	9c 87       	std	Y+12, r25	; 0x0c
     d70:	8b 87       	std	Y+11, r24	; 0x0b
     d72:	89 85       	ldd	r24, Y+9	; 0x09
     d74:	9a 85       	ldd	r25, Y+10	; 0x0a
     d76:	01 97       	sbiw	r24, 0x01	; 1
     d78:	9a 87       	std	Y+10, r25	; 0x0a
     d7a:	89 87       	std	Y+9, r24	; 0x09
     d7c:	89 85       	ldd	r24, Y+9	; 0x09
     d7e:	9a 85       	ldd	r25, Y+10	; 0x0a
     d80:	00 97       	sbiw	r24, 0x00	; 0
     d82:	69 f7       	brne	.-38     	; 0xd5e <lcd_init+0xa8>
     d84:	14 c0       	rjmp	.+40     	; 0xdae <lcd_init+0xf8>
     d86:	6d 81       	ldd	r22, Y+5	; 0x05
     d88:	7e 81       	ldd	r23, Y+6	; 0x06
     d8a:	8f 81       	ldd	r24, Y+7	; 0x07
     d8c:	98 85       	ldd	r25, Y+8	; 0x08
     d8e:	0e 94 7e 20 	call	0x40fc	; 0x40fc <__fixunssfsi>
     d92:	dc 01       	movw	r26, r24
     d94:	cb 01       	movw	r24, r22
     d96:	9a 87       	std	Y+10, r25	; 0x0a
     d98:	89 87       	std	Y+9, r24	; 0x09
     d9a:	89 85       	ldd	r24, Y+9	; 0x09
     d9c:	9a 85       	ldd	r25, Y+10	; 0x0a
     d9e:	9e 87       	std	Y+14, r25	; 0x0e
     da0:	8d 87       	std	Y+13, r24	; 0x0d
     da2:	8d 85       	ldd	r24, Y+13	; 0x0d
     da4:	9e 85       	ldd	r25, Y+14	; 0x0e
     da6:	01 97       	sbiw	r24, 0x01	; 1
     da8:	f1 f7       	brne	.-4      	; 0xda6 <lcd_init+0xf0>
     daa:	9e 87       	std	Y+14, r25	; 0x0e
     dac:	8d 87       	std	Y+13, r24	; 0x0d
     dae:	88 e2       	ldi	r24, 0x28	; 40
     db0:	11 d0       	rcall	.+34     	; 0xdd4 <lcd_wr_command>
     db2:	81 e0       	ldi	r24, 0x01	; 1
     db4:	0f d0       	rcall	.+30     	; 0xdd4 <lcd_wr_command>
     db6:	86 e0       	ldi	r24, 0x06	; 6
     db8:	0d d0       	rcall	.+26     	; 0xdd4 <lcd_wr_command>
     dba:	8e e0       	ldi	r24, 0x0E	; 14
     dbc:	0b d0       	rcall	.+22     	; 0xdd4 <lcd_wr_command>
     dbe:	80 e8       	ldi	r24, 0x80	; 128
     dc0:	09 d0       	rcall	.+18     	; 0xdd4 <lcd_wr_command>
     dc2:	2e 96       	adiw	r28, 0x0e	; 14
     dc4:	0f b6       	in	r0, 0x3f	; 63
     dc6:	f8 94       	cli
     dc8:	de bf       	out	0x3e, r29	; 62
     dca:	0f be       	out	0x3f, r0	; 63
     dcc:	cd bf       	out	0x3d, r28	; 61
     dce:	df 91       	pop	r29
     dd0:	cf 91       	pop	r28
     dd2:	08 95       	ret

00000dd4 <lcd_wr_command>:
     dd4:	cf 93       	push	r28
     dd6:	df 93       	push	r29
     dd8:	cd b7       	in	r28, 0x3d	; 61
     dda:	de b7       	in	r29, 0x3e	; 62
     ddc:	6e 97       	sbiw	r28, 0x1e	; 30
     dde:	0f b6       	in	r0, 0x3f	; 63
     de0:	f8 94       	cli
     de2:	de bf       	out	0x3e, r29	; 62
     de4:	0f be       	out	0x3f, r0	; 63
     de6:	cd bf       	out	0x3d, r28	; 61
     de8:	8e 8f       	std	Y+30, r24	; 0x1e
     dea:	8e 8d       	ldd	r24, Y+30	; 0x1e
     dec:	89 83       	std	Y+1, r24	; 0x01
     dee:	89 81       	ldd	r24, Y+1	; 0x01
     df0:	80 7f       	andi	r24, 0xF0	; 240
     df2:	89 83       	std	Y+1, r24	; 0x01
     df4:	88 e2       	ldi	r24, 0x28	; 40
     df6:	90 e0       	ldi	r25, 0x00	; 0
     df8:	28 e2       	ldi	r18, 0x28	; 40
     dfa:	30 e0       	ldi	r19, 0x00	; 0
     dfc:	f9 01       	movw	r30, r18
     dfe:	20 81       	ld	r18, Z
     e00:	2f 70       	andi	r18, 0x0F	; 15
     e02:	fc 01       	movw	r30, r24
     e04:	20 83       	st	Z, r18
     e06:	88 e2       	ldi	r24, 0x28	; 40
     e08:	90 e0       	ldi	r25, 0x00	; 0
     e0a:	28 e2       	ldi	r18, 0x28	; 40
     e0c:	30 e0       	ldi	r19, 0x00	; 0
     e0e:	f9 01       	movw	r30, r18
     e10:	30 81       	ld	r19, Z
     e12:	29 81       	ldd	r18, Y+1	; 0x01
     e14:	23 2b       	or	r18, r19
     e16:	fc 01       	movw	r30, r24
     e18:	20 83       	st	Z, r18
     e1a:	88 e2       	ldi	r24, 0x28	; 40
     e1c:	90 e0       	ldi	r25, 0x00	; 0
     e1e:	28 e2       	ldi	r18, 0x28	; 40
     e20:	30 e0       	ldi	r19, 0x00	; 0
     e22:	f9 01       	movw	r30, r18
     e24:	20 81       	ld	r18, Z
     e26:	2e 7f       	andi	r18, 0xFE	; 254
     e28:	fc 01       	movw	r30, r24
     e2a:	20 83       	st	Z, r18
     e2c:	88 e2       	ldi	r24, 0x28	; 40
     e2e:	90 e0       	ldi	r25, 0x00	; 0
     e30:	28 e2       	ldi	r18, 0x28	; 40
     e32:	30 e0       	ldi	r19, 0x00	; 0
     e34:	f9 01       	movw	r30, r18
     e36:	20 81       	ld	r18, Z
     e38:	2d 7f       	andi	r18, 0xFD	; 253
     e3a:	fc 01       	movw	r30, r24
     e3c:	20 83       	st	Z, r18
     e3e:	88 e2       	ldi	r24, 0x28	; 40
     e40:	90 e0       	ldi	r25, 0x00	; 0
     e42:	28 e2       	ldi	r18, 0x28	; 40
     e44:	30 e0       	ldi	r19, 0x00	; 0
     e46:	f9 01       	movw	r30, r18
     e48:	20 81       	ld	r18, Z
     e4a:	24 60       	ori	r18, 0x04	; 4
     e4c:	fc 01       	movw	r30, r24
     e4e:	20 83       	st	Z, r18
     e50:	80 e0       	ldi	r24, 0x00	; 0
     e52:	90 e0       	ldi	r25, 0x00	; 0
     e54:	a0 ea       	ldi	r26, 0xA0	; 160
     e56:	b0 e4       	ldi	r27, 0x40	; 64
     e58:	8a 83       	std	Y+2, r24	; 0x02
     e5a:	9b 83       	std	Y+3, r25	; 0x03
     e5c:	ac 83       	std	Y+4, r26	; 0x04
     e5e:	bd 83       	std	Y+5, r27	; 0x05
     e60:	26 e6       	ldi	r18, 0x66	; 102
     e62:	36 e6       	ldi	r19, 0x66	; 102
     e64:	46 e6       	ldi	r20, 0x66	; 102
     e66:	55 e4       	ldi	r21, 0x45	; 69
     e68:	6a 81       	ldd	r22, Y+2	; 0x02
     e6a:	7b 81       	ldd	r23, Y+3	; 0x03
     e6c:	8c 81       	ldd	r24, Y+4	; 0x04
     e6e:	9d 81       	ldd	r25, Y+5	; 0x05
     e70:	0e 94 60 21 	call	0x42c0	; 0x42c0 <__mulsf3>
     e74:	dc 01       	movw	r26, r24
     e76:	cb 01       	movw	r24, r22
     e78:	8e 83       	std	Y+6, r24	; 0x06
     e7a:	9f 83       	std	Y+7, r25	; 0x07
     e7c:	a8 87       	std	Y+8, r26	; 0x08
     e7e:	b9 87       	std	Y+9, r27	; 0x09
     e80:	20 e0       	ldi	r18, 0x00	; 0
     e82:	30 e0       	ldi	r19, 0x00	; 0
     e84:	40 e8       	ldi	r20, 0x80	; 128
     e86:	5f e3       	ldi	r21, 0x3F	; 63
     e88:	6e 81       	ldd	r22, Y+6	; 0x06
     e8a:	7f 81       	ldd	r23, Y+7	; 0x07
     e8c:	88 85       	ldd	r24, Y+8	; 0x08
     e8e:	99 85       	ldd	r25, Y+9	; 0x09
     e90:	0e 94 0d 20 	call	0x401a	; 0x401a <__cmpsf2>
     e94:	88 23       	and	r24, r24
     e96:	2c f4       	brge	.+10     	; 0xea2 <lcd_wr_command+0xce>
     e98:	81 e0       	ldi	r24, 0x01	; 1
     e9a:	90 e0       	ldi	r25, 0x00	; 0
     e9c:	9b 87       	std	Y+11, r25	; 0x0b
     e9e:	8a 87       	std	Y+10, r24	; 0x0a
     ea0:	3f c0       	rjmp	.+126    	; 0xf20 <lcd_wr_command+0x14c>
     ea2:	20 e0       	ldi	r18, 0x00	; 0
     ea4:	3f ef       	ldi	r19, 0xFF	; 255
     ea6:	4f e7       	ldi	r20, 0x7F	; 127
     ea8:	57 e4       	ldi	r21, 0x47	; 71
     eaa:	6e 81       	ldd	r22, Y+6	; 0x06
     eac:	7f 81       	ldd	r23, Y+7	; 0x07
     eae:	88 85       	ldd	r24, Y+8	; 0x08
     eb0:	99 85       	ldd	r25, Y+9	; 0x09
     eb2:	0e 94 5c 21 	call	0x42b8	; 0x42b8 <__gesf2>
     eb6:	18 16       	cp	r1, r24
     eb8:	4c f5       	brge	.+82     	; 0xf0c <lcd_wr_command+0x138>
     eba:	20 e0       	ldi	r18, 0x00	; 0
     ebc:	30 e0       	ldi	r19, 0x00	; 0
     ebe:	40 e2       	ldi	r20, 0x20	; 32
     ec0:	51 e4       	ldi	r21, 0x41	; 65
     ec2:	6a 81       	ldd	r22, Y+2	; 0x02
     ec4:	7b 81       	ldd	r23, Y+3	; 0x03
     ec6:	8c 81       	ldd	r24, Y+4	; 0x04
     ec8:	9d 81       	ldd	r25, Y+5	; 0x05
     eca:	0e 94 60 21 	call	0x42c0	; 0x42c0 <__mulsf3>
     ece:	dc 01       	movw	r26, r24
     ed0:	cb 01       	movw	r24, r22
     ed2:	bc 01       	movw	r22, r24
     ed4:	cd 01       	movw	r24, r26
     ed6:	0e 94 7e 20 	call	0x40fc	; 0x40fc <__fixunssfsi>
     eda:	dc 01       	movw	r26, r24
     edc:	cb 01       	movw	r24, r22
     ede:	9b 87       	std	Y+11, r25	; 0x0b
     ee0:	8a 87       	std	Y+10, r24	; 0x0a
     ee2:	0f c0       	rjmp	.+30     	; 0xf02 <lcd_wr_command+0x12e>
     ee4:	80 e7       	ldi	r24, 0x70	; 112
     ee6:	91 e0       	ldi	r25, 0x01	; 1
     ee8:	9d 87       	std	Y+13, r25	; 0x0d
     eea:	8c 87       	std	Y+12, r24	; 0x0c
     eec:	8c 85       	ldd	r24, Y+12	; 0x0c
     eee:	9d 85       	ldd	r25, Y+13	; 0x0d
     ef0:	01 97       	sbiw	r24, 0x01	; 1
     ef2:	f1 f7       	brne	.-4      	; 0xef0 <lcd_wr_command+0x11c>
     ef4:	9d 87       	std	Y+13, r25	; 0x0d
     ef6:	8c 87       	std	Y+12, r24	; 0x0c
     ef8:	8a 85       	ldd	r24, Y+10	; 0x0a
     efa:	9b 85       	ldd	r25, Y+11	; 0x0b
     efc:	01 97       	sbiw	r24, 0x01	; 1
     efe:	9b 87       	std	Y+11, r25	; 0x0b
     f00:	8a 87       	std	Y+10, r24	; 0x0a
     f02:	8a 85       	ldd	r24, Y+10	; 0x0a
     f04:	9b 85       	ldd	r25, Y+11	; 0x0b
     f06:	00 97       	sbiw	r24, 0x00	; 0
     f08:	69 f7       	brne	.-38     	; 0xee4 <lcd_wr_command+0x110>
     f0a:	14 c0       	rjmp	.+40     	; 0xf34 <lcd_wr_command+0x160>
     f0c:	6e 81       	ldd	r22, Y+6	; 0x06
     f0e:	7f 81       	ldd	r23, Y+7	; 0x07
     f10:	88 85       	ldd	r24, Y+8	; 0x08
     f12:	99 85       	ldd	r25, Y+9	; 0x09
     f14:	0e 94 7e 20 	call	0x40fc	; 0x40fc <__fixunssfsi>
     f18:	dc 01       	movw	r26, r24
     f1a:	cb 01       	movw	r24, r22
     f1c:	9b 87       	std	Y+11, r25	; 0x0b
     f1e:	8a 87       	std	Y+10, r24	; 0x0a
     f20:	8a 85       	ldd	r24, Y+10	; 0x0a
     f22:	9b 85       	ldd	r25, Y+11	; 0x0b
     f24:	9f 87       	std	Y+15, r25	; 0x0f
     f26:	8e 87       	std	Y+14, r24	; 0x0e
     f28:	8e 85       	ldd	r24, Y+14	; 0x0e
     f2a:	9f 85       	ldd	r25, Y+15	; 0x0f
     f2c:	01 97       	sbiw	r24, 0x01	; 1
     f2e:	f1 f7       	brne	.-4      	; 0xf2c <lcd_wr_command+0x158>
     f30:	9f 87       	std	Y+15, r25	; 0x0f
     f32:	8e 87       	std	Y+14, r24	; 0x0e
     f34:	88 e2       	ldi	r24, 0x28	; 40
     f36:	90 e0       	ldi	r25, 0x00	; 0
     f38:	28 e2       	ldi	r18, 0x28	; 40
     f3a:	30 e0       	ldi	r19, 0x00	; 0
     f3c:	f9 01       	movw	r30, r18
     f3e:	20 81       	ld	r18, Z
     f40:	2b 7f       	andi	r18, 0xFB	; 251
     f42:	fc 01       	movw	r30, r24
     f44:	20 83       	st	Z, r18
     f46:	8e 8d       	ldd	r24, Y+30	; 0x1e
     f48:	8f 70       	andi	r24, 0x0F	; 15
     f4a:	8e 8f       	std	Y+30, r24	; 0x1e
     f4c:	8e 8d       	ldd	r24, Y+30	; 0x1e
     f4e:	82 95       	swap	r24
     f50:	80 7f       	andi	r24, 0xF0	; 240
     f52:	8e 8f       	std	Y+30, r24	; 0x1e
     f54:	88 e2       	ldi	r24, 0x28	; 40
     f56:	90 e0       	ldi	r25, 0x00	; 0
     f58:	28 e2       	ldi	r18, 0x28	; 40
     f5a:	30 e0       	ldi	r19, 0x00	; 0
     f5c:	f9 01       	movw	r30, r18
     f5e:	20 81       	ld	r18, Z
     f60:	2f 70       	andi	r18, 0x0F	; 15
     f62:	fc 01       	movw	r30, r24
     f64:	20 83       	st	Z, r18
     f66:	88 e2       	ldi	r24, 0x28	; 40
     f68:	90 e0       	ldi	r25, 0x00	; 0
     f6a:	28 e2       	ldi	r18, 0x28	; 40
     f6c:	30 e0       	ldi	r19, 0x00	; 0
     f6e:	f9 01       	movw	r30, r18
     f70:	30 81       	ld	r19, Z
     f72:	2e 8d       	ldd	r18, Y+30	; 0x1e
     f74:	23 2b       	or	r18, r19
     f76:	fc 01       	movw	r30, r24
     f78:	20 83       	st	Z, r18
     f7a:	88 e2       	ldi	r24, 0x28	; 40
     f7c:	90 e0       	ldi	r25, 0x00	; 0
     f7e:	28 e2       	ldi	r18, 0x28	; 40
     f80:	30 e0       	ldi	r19, 0x00	; 0
     f82:	f9 01       	movw	r30, r18
     f84:	20 81       	ld	r18, Z
     f86:	2e 7f       	andi	r18, 0xFE	; 254
     f88:	fc 01       	movw	r30, r24
     f8a:	20 83       	st	Z, r18
     f8c:	88 e2       	ldi	r24, 0x28	; 40
     f8e:	90 e0       	ldi	r25, 0x00	; 0
     f90:	28 e2       	ldi	r18, 0x28	; 40
     f92:	30 e0       	ldi	r19, 0x00	; 0
     f94:	f9 01       	movw	r30, r18
     f96:	20 81       	ld	r18, Z
     f98:	2d 7f       	andi	r18, 0xFD	; 253
     f9a:	fc 01       	movw	r30, r24
     f9c:	20 83       	st	Z, r18
     f9e:	88 e2       	ldi	r24, 0x28	; 40
     fa0:	90 e0       	ldi	r25, 0x00	; 0
     fa2:	28 e2       	ldi	r18, 0x28	; 40
     fa4:	30 e0       	ldi	r19, 0x00	; 0
     fa6:	f9 01       	movw	r30, r18
     fa8:	20 81       	ld	r18, Z
     faa:	24 60       	ori	r18, 0x04	; 4
     fac:	fc 01       	movw	r30, r24
     fae:	20 83       	st	Z, r18
     fb0:	80 e0       	ldi	r24, 0x00	; 0
     fb2:	90 e0       	ldi	r25, 0x00	; 0
     fb4:	a0 ea       	ldi	r26, 0xA0	; 160
     fb6:	b0 e4       	ldi	r27, 0x40	; 64
     fb8:	88 8b       	std	Y+16, r24	; 0x10
     fba:	99 8b       	std	Y+17, r25	; 0x11
     fbc:	aa 8b       	std	Y+18, r26	; 0x12
     fbe:	bb 8b       	std	Y+19, r27	; 0x13
     fc0:	26 e6       	ldi	r18, 0x66	; 102
     fc2:	36 e6       	ldi	r19, 0x66	; 102
     fc4:	46 e6       	ldi	r20, 0x66	; 102
     fc6:	55 e4       	ldi	r21, 0x45	; 69
     fc8:	68 89       	ldd	r22, Y+16	; 0x10
     fca:	79 89       	ldd	r23, Y+17	; 0x11
     fcc:	8a 89       	ldd	r24, Y+18	; 0x12
     fce:	9b 89       	ldd	r25, Y+19	; 0x13
     fd0:	0e 94 60 21 	call	0x42c0	; 0x42c0 <__mulsf3>
     fd4:	dc 01       	movw	r26, r24
     fd6:	cb 01       	movw	r24, r22
     fd8:	8c 8b       	std	Y+20, r24	; 0x14
     fda:	9d 8b       	std	Y+21, r25	; 0x15
     fdc:	ae 8b       	std	Y+22, r26	; 0x16
     fde:	bf 8b       	std	Y+23, r27	; 0x17
     fe0:	20 e0       	ldi	r18, 0x00	; 0
     fe2:	30 e0       	ldi	r19, 0x00	; 0
     fe4:	40 e8       	ldi	r20, 0x80	; 128
     fe6:	5f e3       	ldi	r21, 0x3F	; 63
     fe8:	6c 89       	ldd	r22, Y+20	; 0x14
     fea:	7d 89       	ldd	r23, Y+21	; 0x15
     fec:	8e 89       	ldd	r24, Y+22	; 0x16
     fee:	9f 89       	ldd	r25, Y+23	; 0x17
     ff0:	0e 94 0d 20 	call	0x401a	; 0x401a <__cmpsf2>
     ff4:	88 23       	and	r24, r24
     ff6:	2c f4       	brge	.+10     	; 0x1002 <lcd_wr_command+0x22e>
     ff8:	81 e0       	ldi	r24, 0x01	; 1
     ffa:	90 e0       	ldi	r25, 0x00	; 0
     ffc:	99 8f       	std	Y+25, r25	; 0x19
     ffe:	88 8f       	std	Y+24, r24	; 0x18
    1000:	3f c0       	rjmp	.+126    	; 0x1080 <lcd_wr_command+0x2ac>
    1002:	20 e0       	ldi	r18, 0x00	; 0
    1004:	3f ef       	ldi	r19, 0xFF	; 255
    1006:	4f e7       	ldi	r20, 0x7F	; 127
    1008:	57 e4       	ldi	r21, 0x47	; 71
    100a:	6c 89       	ldd	r22, Y+20	; 0x14
    100c:	7d 89       	ldd	r23, Y+21	; 0x15
    100e:	8e 89       	ldd	r24, Y+22	; 0x16
    1010:	9f 89       	ldd	r25, Y+23	; 0x17
    1012:	0e 94 5c 21 	call	0x42b8	; 0x42b8 <__gesf2>
    1016:	18 16       	cp	r1, r24
    1018:	4c f5       	brge	.+82     	; 0x106c <lcd_wr_command+0x298>
    101a:	20 e0       	ldi	r18, 0x00	; 0
    101c:	30 e0       	ldi	r19, 0x00	; 0
    101e:	40 e2       	ldi	r20, 0x20	; 32
    1020:	51 e4       	ldi	r21, 0x41	; 65
    1022:	68 89       	ldd	r22, Y+16	; 0x10
    1024:	79 89       	ldd	r23, Y+17	; 0x11
    1026:	8a 89       	ldd	r24, Y+18	; 0x12
    1028:	9b 89       	ldd	r25, Y+19	; 0x13
    102a:	0e 94 60 21 	call	0x42c0	; 0x42c0 <__mulsf3>
    102e:	dc 01       	movw	r26, r24
    1030:	cb 01       	movw	r24, r22
    1032:	bc 01       	movw	r22, r24
    1034:	cd 01       	movw	r24, r26
    1036:	0e 94 7e 20 	call	0x40fc	; 0x40fc <__fixunssfsi>
    103a:	dc 01       	movw	r26, r24
    103c:	cb 01       	movw	r24, r22
    103e:	99 8f       	std	Y+25, r25	; 0x19
    1040:	88 8f       	std	Y+24, r24	; 0x18
    1042:	0f c0       	rjmp	.+30     	; 0x1062 <lcd_wr_command+0x28e>
    1044:	80 e7       	ldi	r24, 0x70	; 112
    1046:	91 e0       	ldi	r25, 0x01	; 1
    1048:	9b 8f       	std	Y+27, r25	; 0x1b
    104a:	8a 8f       	std	Y+26, r24	; 0x1a
    104c:	8a 8d       	ldd	r24, Y+26	; 0x1a
    104e:	9b 8d       	ldd	r25, Y+27	; 0x1b
    1050:	01 97       	sbiw	r24, 0x01	; 1
    1052:	f1 f7       	brne	.-4      	; 0x1050 <lcd_wr_command+0x27c>
    1054:	9b 8f       	std	Y+27, r25	; 0x1b
    1056:	8a 8f       	std	Y+26, r24	; 0x1a
    1058:	88 8d       	ldd	r24, Y+24	; 0x18
    105a:	99 8d       	ldd	r25, Y+25	; 0x19
    105c:	01 97       	sbiw	r24, 0x01	; 1
    105e:	99 8f       	std	Y+25, r25	; 0x19
    1060:	88 8f       	std	Y+24, r24	; 0x18
    1062:	88 8d       	ldd	r24, Y+24	; 0x18
    1064:	99 8d       	ldd	r25, Y+25	; 0x19
    1066:	00 97       	sbiw	r24, 0x00	; 0
    1068:	69 f7       	brne	.-38     	; 0x1044 <lcd_wr_command+0x270>
    106a:	14 c0       	rjmp	.+40     	; 0x1094 <lcd_wr_command+0x2c0>
    106c:	6c 89       	ldd	r22, Y+20	; 0x14
    106e:	7d 89       	ldd	r23, Y+21	; 0x15
    1070:	8e 89       	ldd	r24, Y+22	; 0x16
    1072:	9f 89       	ldd	r25, Y+23	; 0x17
    1074:	0e 94 7e 20 	call	0x40fc	; 0x40fc <__fixunssfsi>
    1078:	dc 01       	movw	r26, r24
    107a:	cb 01       	movw	r24, r22
    107c:	99 8f       	std	Y+25, r25	; 0x19
    107e:	88 8f       	std	Y+24, r24	; 0x18
    1080:	88 8d       	ldd	r24, Y+24	; 0x18
    1082:	99 8d       	ldd	r25, Y+25	; 0x19
    1084:	9d 8f       	std	Y+29, r25	; 0x1d
    1086:	8c 8f       	std	Y+28, r24	; 0x1c
    1088:	8c 8d       	ldd	r24, Y+28	; 0x1c
    108a:	9d 8d       	ldd	r25, Y+29	; 0x1d
    108c:	01 97       	sbiw	r24, 0x01	; 1
    108e:	f1 f7       	brne	.-4      	; 0x108c <lcd_wr_command+0x2b8>
    1090:	9d 8f       	std	Y+29, r25	; 0x1d
    1092:	8c 8f       	std	Y+28, r24	; 0x1c
    1094:	88 e2       	ldi	r24, 0x28	; 40
    1096:	90 e0       	ldi	r25, 0x00	; 0
    1098:	28 e2       	ldi	r18, 0x28	; 40
    109a:	30 e0       	ldi	r19, 0x00	; 0
    109c:	f9 01       	movw	r30, r18
    109e:	20 81       	ld	r18, Z
    10a0:	2b 7f       	andi	r18, 0xFB	; 251
    10a2:	fc 01       	movw	r30, r24
    10a4:	20 83       	st	Z, r18
    10a6:	6e 96       	adiw	r28, 0x1e	; 30
    10a8:	0f b6       	in	r0, 0x3f	; 63
    10aa:	f8 94       	cli
    10ac:	de bf       	out	0x3e, r29	; 62
    10ae:	0f be       	out	0x3f, r0	; 63
    10b0:	cd bf       	out	0x3d, r28	; 61
    10b2:	df 91       	pop	r29
    10b4:	cf 91       	pop	r28
    10b6:	08 95       	ret

000010b8 <lcd_wr_char>:
    10b8:	cf 93       	push	r28
    10ba:	df 93       	push	r29
    10bc:	cd b7       	in	r28, 0x3d	; 61
    10be:	de b7       	in	r29, 0x3e	; 62
    10c0:	6e 97       	sbiw	r28, 0x1e	; 30
    10c2:	0f b6       	in	r0, 0x3f	; 63
    10c4:	f8 94       	cli
    10c6:	de bf       	out	0x3e, r29	; 62
    10c8:	0f be       	out	0x3f, r0	; 63
    10ca:	cd bf       	out	0x3d, r28	; 61
    10cc:	8e 8f       	std	Y+30, r24	; 0x1e
    10ce:	8e 8d       	ldd	r24, Y+30	; 0x1e
    10d0:	89 83       	std	Y+1, r24	; 0x01
    10d2:	89 81       	ldd	r24, Y+1	; 0x01
    10d4:	80 7f       	andi	r24, 0xF0	; 240
    10d6:	89 83       	std	Y+1, r24	; 0x01
    10d8:	88 e2       	ldi	r24, 0x28	; 40
    10da:	90 e0       	ldi	r25, 0x00	; 0
    10dc:	28 e2       	ldi	r18, 0x28	; 40
    10de:	30 e0       	ldi	r19, 0x00	; 0
    10e0:	f9 01       	movw	r30, r18
    10e2:	20 81       	ld	r18, Z
    10e4:	2f 70       	andi	r18, 0x0F	; 15
    10e6:	fc 01       	movw	r30, r24
    10e8:	20 83       	st	Z, r18
    10ea:	88 e2       	ldi	r24, 0x28	; 40
    10ec:	90 e0       	ldi	r25, 0x00	; 0
    10ee:	28 e2       	ldi	r18, 0x28	; 40
    10f0:	30 e0       	ldi	r19, 0x00	; 0
    10f2:	f9 01       	movw	r30, r18
    10f4:	30 81       	ld	r19, Z
    10f6:	29 81       	ldd	r18, Y+1	; 0x01
    10f8:	23 2b       	or	r18, r19
    10fa:	fc 01       	movw	r30, r24
    10fc:	20 83       	st	Z, r18
    10fe:	88 e2       	ldi	r24, 0x28	; 40
    1100:	90 e0       	ldi	r25, 0x00	; 0
    1102:	28 e2       	ldi	r18, 0x28	; 40
    1104:	30 e0       	ldi	r19, 0x00	; 0
    1106:	f9 01       	movw	r30, r18
    1108:	20 81       	ld	r18, Z
    110a:	21 60       	ori	r18, 0x01	; 1
    110c:	fc 01       	movw	r30, r24
    110e:	20 83       	st	Z, r18
    1110:	88 e2       	ldi	r24, 0x28	; 40
    1112:	90 e0       	ldi	r25, 0x00	; 0
    1114:	28 e2       	ldi	r18, 0x28	; 40
    1116:	30 e0       	ldi	r19, 0x00	; 0
    1118:	f9 01       	movw	r30, r18
    111a:	20 81       	ld	r18, Z
    111c:	2d 7f       	andi	r18, 0xFD	; 253
    111e:	fc 01       	movw	r30, r24
    1120:	20 83       	st	Z, r18
    1122:	88 e2       	ldi	r24, 0x28	; 40
    1124:	90 e0       	ldi	r25, 0x00	; 0
    1126:	28 e2       	ldi	r18, 0x28	; 40
    1128:	30 e0       	ldi	r19, 0x00	; 0
    112a:	f9 01       	movw	r30, r18
    112c:	20 81       	ld	r18, Z
    112e:	24 60       	ori	r18, 0x04	; 4
    1130:	fc 01       	movw	r30, r24
    1132:	20 83       	st	Z, r18
    1134:	80 e0       	ldi	r24, 0x00	; 0
    1136:	90 e0       	ldi	r25, 0x00	; 0
    1138:	a0 ea       	ldi	r26, 0xA0	; 160
    113a:	b0 e4       	ldi	r27, 0x40	; 64
    113c:	8a 83       	std	Y+2, r24	; 0x02
    113e:	9b 83       	std	Y+3, r25	; 0x03
    1140:	ac 83       	std	Y+4, r26	; 0x04
    1142:	bd 83       	std	Y+5, r27	; 0x05
    1144:	26 e6       	ldi	r18, 0x66	; 102
    1146:	36 e6       	ldi	r19, 0x66	; 102
    1148:	46 e6       	ldi	r20, 0x66	; 102
    114a:	55 e4       	ldi	r21, 0x45	; 69
    114c:	6a 81       	ldd	r22, Y+2	; 0x02
    114e:	7b 81       	ldd	r23, Y+3	; 0x03
    1150:	8c 81       	ldd	r24, Y+4	; 0x04
    1152:	9d 81       	ldd	r25, Y+5	; 0x05
    1154:	0e 94 60 21 	call	0x42c0	; 0x42c0 <__mulsf3>
    1158:	dc 01       	movw	r26, r24
    115a:	cb 01       	movw	r24, r22
    115c:	8e 83       	std	Y+6, r24	; 0x06
    115e:	9f 83       	std	Y+7, r25	; 0x07
    1160:	a8 87       	std	Y+8, r26	; 0x08
    1162:	b9 87       	std	Y+9, r27	; 0x09
    1164:	20 e0       	ldi	r18, 0x00	; 0
    1166:	30 e0       	ldi	r19, 0x00	; 0
    1168:	40 e8       	ldi	r20, 0x80	; 128
    116a:	5f e3       	ldi	r21, 0x3F	; 63
    116c:	6e 81       	ldd	r22, Y+6	; 0x06
    116e:	7f 81       	ldd	r23, Y+7	; 0x07
    1170:	88 85       	ldd	r24, Y+8	; 0x08
    1172:	99 85       	ldd	r25, Y+9	; 0x09
    1174:	0e 94 0d 20 	call	0x401a	; 0x401a <__cmpsf2>
    1178:	88 23       	and	r24, r24
    117a:	2c f4       	brge	.+10     	; 0x1186 <lcd_wr_char+0xce>
    117c:	81 e0       	ldi	r24, 0x01	; 1
    117e:	90 e0       	ldi	r25, 0x00	; 0
    1180:	9b 87       	std	Y+11, r25	; 0x0b
    1182:	8a 87       	std	Y+10, r24	; 0x0a
    1184:	3f c0       	rjmp	.+126    	; 0x1204 <lcd_wr_char+0x14c>
    1186:	20 e0       	ldi	r18, 0x00	; 0
    1188:	3f ef       	ldi	r19, 0xFF	; 255
    118a:	4f e7       	ldi	r20, 0x7F	; 127
    118c:	57 e4       	ldi	r21, 0x47	; 71
    118e:	6e 81       	ldd	r22, Y+6	; 0x06
    1190:	7f 81       	ldd	r23, Y+7	; 0x07
    1192:	88 85       	ldd	r24, Y+8	; 0x08
    1194:	99 85       	ldd	r25, Y+9	; 0x09
    1196:	0e 94 5c 21 	call	0x42b8	; 0x42b8 <__gesf2>
    119a:	18 16       	cp	r1, r24
    119c:	4c f5       	brge	.+82     	; 0x11f0 <lcd_wr_char+0x138>
    119e:	20 e0       	ldi	r18, 0x00	; 0
    11a0:	30 e0       	ldi	r19, 0x00	; 0
    11a2:	40 e2       	ldi	r20, 0x20	; 32
    11a4:	51 e4       	ldi	r21, 0x41	; 65
    11a6:	6a 81       	ldd	r22, Y+2	; 0x02
    11a8:	7b 81       	ldd	r23, Y+3	; 0x03
    11aa:	8c 81       	ldd	r24, Y+4	; 0x04
    11ac:	9d 81       	ldd	r25, Y+5	; 0x05
    11ae:	0e 94 60 21 	call	0x42c0	; 0x42c0 <__mulsf3>
    11b2:	dc 01       	movw	r26, r24
    11b4:	cb 01       	movw	r24, r22
    11b6:	bc 01       	movw	r22, r24
    11b8:	cd 01       	movw	r24, r26
    11ba:	0e 94 7e 20 	call	0x40fc	; 0x40fc <__fixunssfsi>
    11be:	dc 01       	movw	r26, r24
    11c0:	cb 01       	movw	r24, r22
    11c2:	9b 87       	std	Y+11, r25	; 0x0b
    11c4:	8a 87       	std	Y+10, r24	; 0x0a
    11c6:	0f c0       	rjmp	.+30     	; 0x11e6 <lcd_wr_char+0x12e>
    11c8:	80 e7       	ldi	r24, 0x70	; 112
    11ca:	91 e0       	ldi	r25, 0x01	; 1
    11cc:	9d 87       	std	Y+13, r25	; 0x0d
    11ce:	8c 87       	std	Y+12, r24	; 0x0c
    11d0:	8c 85       	ldd	r24, Y+12	; 0x0c
    11d2:	9d 85       	ldd	r25, Y+13	; 0x0d
    11d4:	01 97       	sbiw	r24, 0x01	; 1
    11d6:	f1 f7       	brne	.-4      	; 0x11d4 <lcd_wr_char+0x11c>
    11d8:	9d 87       	std	Y+13, r25	; 0x0d
    11da:	8c 87       	std	Y+12, r24	; 0x0c
    11dc:	8a 85       	ldd	r24, Y+10	; 0x0a
    11de:	9b 85       	ldd	r25, Y+11	; 0x0b
    11e0:	01 97       	sbiw	r24, 0x01	; 1
    11e2:	9b 87       	std	Y+11, r25	; 0x0b
    11e4:	8a 87       	std	Y+10, r24	; 0x0a
    11e6:	8a 85       	ldd	r24, Y+10	; 0x0a
    11e8:	9b 85       	ldd	r25, Y+11	; 0x0b
    11ea:	00 97       	sbiw	r24, 0x00	; 0
    11ec:	69 f7       	brne	.-38     	; 0x11c8 <lcd_wr_char+0x110>
    11ee:	14 c0       	rjmp	.+40     	; 0x1218 <lcd_wr_char+0x160>
    11f0:	6e 81       	ldd	r22, Y+6	; 0x06
    11f2:	7f 81       	ldd	r23, Y+7	; 0x07
    11f4:	88 85       	ldd	r24, Y+8	; 0x08
    11f6:	99 85       	ldd	r25, Y+9	; 0x09
    11f8:	0e 94 7e 20 	call	0x40fc	; 0x40fc <__fixunssfsi>
    11fc:	dc 01       	movw	r26, r24
    11fe:	cb 01       	movw	r24, r22
    1200:	9b 87       	std	Y+11, r25	; 0x0b
    1202:	8a 87       	std	Y+10, r24	; 0x0a
    1204:	8a 85       	ldd	r24, Y+10	; 0x0a
    1206:	9b 85       	ldd	r25, Y+11	; 0x0b
    1208:	9f 87       	std	Y+15, r25	; 0x0f
    120a:	8e 87       	std	Y+14, r24	; 0x0e
    120c:	8e 85       	ldd	r24, Y+14	; 0x0e
    120e:	9f 85       	ldd	r25, Y+15	; 0x0f
    1210:	01 97       	sbiw	r24, 0x01	; 1
    1212:	f1 f7       	brne	.-4      	; 0x1210 <lcd_wr_char+0x158>
    1214:	9f 87       	std	Y+15, r25	; 0x0f
    1216:	8e 87       	std	Y+14, r24	; 0x0e
    1218:	88 e2       	ldi	r24, 0x28	; 40
    121a:	90 e0       	ldi	r25, 0x00	; 0
    121c:	28 e2       	ldi	r18, 0x28	; 40
    121e:	30 e0       	ldi	r19, 0x00	; 0
    1220:	f9 01       	movw	r30, r18
    1222:	20 81       	ld	r18, Z
    1224:	2b 7f       	andi	r18, 0xFB	; 251
    1226:	fc 01       	movw	r30, r24
    1228:	20 83       	st	Z, r18
    122a:	8e 8d       	ldd	r24, Y+30	; 0x1e
    122c:	8f 70       	andi	r24, 0x0F	; 15
    122e:	8e 8f       	std	Y+30, r24	; 0x1e
    1230:	8e 8d       	ldd	r24, Y+30	; 0x1e
    1232:	82 95       	swap	r24
    1234:	80 7f       	andi	r24, 0xF0	; 240
    1236:	8e 8f       	std	Y+30, r24	; 0x1e
    1238:	88 e2       	ldi	r24, 0x28	; 40
    123a:	90 e0       	ldi	r25, 0x00	; 0
    123c:	28 e2       	ldi	r18, 0x28	; 40
    123e:	30 e0       	ldi	r19, 0x00	; 0
    1240:	f9 01       	movw	r30, r18
    1242:	20 81       	ld	r18, Z
    1244:	2f 70       	andi	r18, 0x0F	; 15
    1246:	fc 01       	movw	r30, r24
    1248:	20 83       	st	Z, r18
    124a:	88 e2       	ldi	r24, 0x28	; 40
    124c:	90 e0       	ldi	r25, 0x00	; 0
    124e:	28 e2       	ldi	r18, 0x28	; 40
    1250:	30 e0       	ldi	r19, 0x00	; 0
    1252:	f9 01       	movw	r30, r18
    1254:	30 81       	ld	r19, Z
    1256:	2e 8d       	ldd	r18, Y+30	; 0x1e
    1258:	23 2b       	or	r18, r19
    125a:	fc 01       	movw	r30, r24
    125c:	20 83       	st	Z, r18
    125e:	88 e2       	ldi	r24, 0x28	; 40
    1260:	90 e0       	ldi	r25, 0x00	; 0
    1262:	28 e2       	ldi	r18, 0x28	; 40
    1264:	30 e0       	ldi	r19, 0x00	; 0
    1266:	f9 01       	movw	r30, r18
    1268:	20 81       	ld	r18, Z
    126a:	21 60       	ori	r18, 0x01	; 1
    126c:	fc 01       	movw	r30, r24
    126e:	20 83       	st	Z, r18
    1270:	88 e2       	ldi	r24, 0x28	; 40
    1272:	90 e0       	ldi	r25, 0x00	; 0
    1274:	28 e2       	ldi	r18, 0x28	; 40
    1276:	30 e0       	ldi	r19, 0x00	; 0
    1278:	f9 01       	movw	r30, r18
    127a:	20 81       	ld	r18, Z
    127c:	2d 7f       	andi	r18, 0xFD	; 253
    127e:	fc 01       	movw	r30, r24
    1280:	20 83       	st	Z, r18
    1282:	88 e2       	ldi	r24, 0x28	; 40
    1284:	90 e0       	ldi	r25, 0x00	; 0
    1286:	28 e2       	ldi	r18, 0x28	; 40
    1288:	30 e0       	ldi	r19, 0x00	; 0
    128a:	f9 01       	movw	r30, r18
    128c:	20 81       	ld	r18, Z
    128e:	24 60       	ori	r18, 0x04	; 4
    1290:	fc 01       	movw	r30, r24
    1292:	20 83       	st	Z, r18
    1294:	80 e0       	ldi	r24, 0x00	; 0
    1296:	90 e0       	ldi	r25, 0x00	; 0
    1298:	a0 ea       	ldi	r26, 0xA0	; 160
    129a:	b0 e4       	ldi	r27, 0x40	; 64
    129c:	88 8b       	std	Y+16, r24	; 0x10
    129e:	99 8b       	std	Y+17, r25	; 0x11
    12a0:	aa 8b       	std	Y+18, r26	; 0x12
    12a2:	bb 8b       	std	Y+19, r27	; 0x13
    12a4:	26 e6       	ldi	r18, 0x66	; 102
    12a6:	36 e6       	ldi	r19, 0x66	; 102
    12a8:	46 e6       	ldi	r20, 0x66	; 102
    12aa:	55 e4       	ldi	r21, 0x45	; 69
    12ac:	68 89       	ldd	r22, Y+16	; 0x10
    12ae:	79 89       	ldd	r23, Y+17	; 0x11
    12b0:	8a 89       	ldd	r24, Y+18	; 0x12
    12b2:	9b 89       	ldd	r25, Y+19	; 0x13
    12b4:	0e 94 60 21 	call	0x42c0	; 0x42c0 <__mulsf3>
    12b8:	dc 01       	movw	r26, r24
    12ba:	cb 01       	movw	r24, r22
    12bc:	8c 8b       	std	Y+20, r24	; 0x14
    12be:	9d 8b       	std	Y+21, r25	; 0x15
    12c0:	ae 8b       	std	Y+22, r26	; 0x16
    12c2:	bf 8b       	std	Y+23, r27	; 0x17
    12c4:	20 e0       	ldi	r18, 0x00	; 0
    12c6:	30 e0       	ldi	r19, 0x00	; 0
    12c8:	40 e8       	ldi	r20, 0x80	; 128
    12ca:	5f e3       	ldi	r21, 0x3F	; 63
    12cc:	6c 89       	ldd	r22, Y+20	; 0x14
    12ce:	7d 89       	ldd	r23, Y+21	; 0x15
    12d0:	8e 89       	ldd	r24, Y+22	; 0x16
    12d2:	9f 89       	ldd	r25, Y+23	; 0x17
    12d4:	0e 94 0d 20 	call	0x401a	; 0x401a <__cmpsf2>
    12d8:	88 23       	and	r24, r24
    12da:	2c f4       	brge	.+10     	; 0x12e6 <lcd_wr_char+0x22e>
    12dc:	81 e0       	ldi	r24, 0x01	; 1
    12de:	90 e0       	ldi	r25, 0x00	; 0
    12e0:	99 8f       	std	Y+25, r25	; 0x19
    12e2:	88 8f       	std	Y+24, r24	; 0x18
    12e4:	3f c0       	rjmp	.+126    	; 0x1364 <lcd_wr_char+0x2ac>
    12e6:	20 e0       	ldi	r18, 0x00	; 0
    12e8:	3f ef       	ldi	r19, 0xFF	; 255
    12ea:	4f e7       	ldi	r20, 0x7F	; 127
    12ec:	57 e4       	ldi	r21, 0x47	; 71
    12ee:	6c 89       	ldd	r22, Y+20	; 0x14
    12f0:	7d 89       	ldd	r23, Y+21	; 0x15
    12f2:	8e 89       	ldd	r24, Y+22	; 0x16
    12f4:	9f 89       	ldd	r25, Y+23	; 0x17
    12f6:	0e 94 5c 21 	call	0x42b8	; 0x42b8 <__gesf2>
    12fa:	18 16       	cp	r1, r24
    12fc:	4c f5       	brge	.+82     	; 0x1350 <lcd_wr_char+0x298>
    12fe:	20 e0       	ldi	r18, 0x00	; 0
    1300:	30 e0       	ldi	r19, 0x00	; 0
    1302:	40 e2       	ldi	r20, 0x20	; 32
    1304:	51 e4       	ldi	r21, 0x41	; 65
    1306:	68 89       	ldd	r22, Y+16	; 0x10
    1308:	79 89       	ldd	r23, Y+17	; 0x11
    130a:	8a 89       	ldd	r24, Y+18	; 0x12
    130c:	9b 89       	ldd	r25, Y+19	; 0x13
    130e:	0e 94 60 21 	call	0x42c0	; 0x42c0 <__mulsf3>
    1312:	dc 01       	movw	r26, r24
    1314:	cb 01       	movw	r24, r22
    1316:	bc 01       	movw	r22, r24
    1318:	cd 01       	movw	r24, r26
    131a:	0e 94 7e 20 	call	0x40fc	; 0x40fc <__fixunssfsi>
    131e:	dc 01       	movw	r26, r24
    1320:	cb 01       	movw	r24, r22
    1322:	99 8f       	std	Y+25, r25	; 0x19
    1324:	88 8f       	std	Y+24, r24	; 0x18
    1326:	0f c0       	rjmp	.+30     	; 0x1346 <lcd_wr_char+0x28e>
    1328:	80 e7       	ldi	r24, 0x70	; 112
    132a:	91 e0       	ldi	r25, 0x01	; 1
    132c:	9b 8f       	std	Y+27, r25	; 0x1b
    132e:	8a 8f       	std	Y+26, r24	; 0x1a
    1330:	8a 8d       	ldd	r24, Y+26	; 0x1a
    1332:	9b 8d       	ldd	r25, Y+27	; 0x1b
    1334:	01 97       	sbiw	r24, 0x01	; 1
    1336:	f1 f7       	brne	.-4      	; 0x1334 <lcd_wr_char+0x27c>
    1338:	9b 8f       	std	Y+27, r25	; 0x1b
    133a:	8a 8f       	std	Y+26, r24	; 0x1a
    133c:	88 8d       	ldd	r24, Y+24	; 0x18
    133e:	99 8d       	ldd	r25, Y+25	; 0x19
    1340:	01 97       	sbiw	r24, 0x01	; 1
    1342:	99 8f       	std	Y+25, r25	; 0x19
    1344:	88 8f       	std	Y+24, r24	; 0x18
    1346:	88 8d       	ldd	r24, Y+24	; 0x18
    1348:	99 8d       	ldd	r25, Y+25	; 0x19
    134a:	00 97       	sbiw	r24, 0x00	; 0
    134c:	69 f7       	brne	.-38     	; 0x1328 <lcd_wr_char+0x270>
    134e:	14 c0       	rjmp	.+40     	; 0x1378 <lcd_wr_char+0x2c0>
    1350:	6c 89       	ldd	r22, Y+20	; 0x14
    1352:	7d 89       	ldd	r23, Y+21	; 0x15
    1354:	8e 89       	ldd	r24, Y+22	; 0x16
    1356:	9f 89       	ldd	r25, Y+23	; 0x17
    1358:	0e 94 7e 20 	call	0x40fc	; 0x40fc <__fixunssfsi>
    135c:	dc 01       	movw	r26, r24
    135e:	cb 01       	movw	r24, r22
    1360:	99 8f       	std	Y+25, r25	; 0x19
    1362:	88 8f       	std	Y+24, r24	; 0x18
    1364:	88 8d       	ldd	r24, Y+24	; 0x18
    1366:	99 8d       	ldd	r25, Y+25	; 0x19
    1368:	9d 8f       	std	Y+29, r25	; 0x1d
    136a:	8c 8f       	std	Y+28, r24	; 0x1c
    136c:	8c 8d       	ldd	r24, Y+28	; 0x1c
    136e:	9d 8d       	ldd	r25, Y+29	; 0x1d
    1370:	01 97       	sbiw	r24, 0x01	; 1
    1372:	f1 f7       	brne	.-4      	; 0x1370 <lcd_wr_char+0x2b8>
    1374:	9d 8f       	std	Y+29, r25	; 0x1d
    1376:	8c 8f       	std	Y+28, r24	; 0x1c
    1378:	88 e2       	ldi	r24, 0x28	; 40
    137a:	90 e0       	ldi	r25, 0x00	; 0
    137c:	28 e2       	ldi	r18, 0x28	; 40
    137e:	30 e0       	ldi	r19, 0x00	; 0
    1380:	f9 01       	movw	r30, r18
    1382:	20 81       	ld	r18, Z
    1384:	2b 7f       	andi	r18, 0xFB	; 251
    1386:	fc 01       	movw	r30, r24
    1388:	20 83       	st	Z, r18
    138a:	6e 96       	adiw	r28, 0x1e	; 30
    138c:	0f b6       	in	r0, 0x3f	; 63
    138e:	f8 94       	cli
    1390:	de bf       	out	0x3e, r29	; 62
    1392:	0f be       	out	0x3f, r0	; 63
    1394:	cd bf       	out	0x3d, r28	; 61
    1396:	df 91       	pop	r29
    1398:	cf 91       	pop	r28
    139a:	08 95       	ret

0000139c <lcd_home>:
    139c:	cf 93       	push	r28
    139e:	df 93       	push	r29
    13a0:	cd b7       	in	r28, 0x3d	; 61
    13a2:	de b7       	in	r29, 0x3e	; 62
    13a4:	80 e8       	ldi	r24, 0x80	; 128
    13a6:	16 dd       	rcall	.-1492   	; 0xdd4 <lcd_wr_command>
    13a8:	df 91       	pop	r29
    13aa:	cf 91       	pop	r28
    13ac:	08 95       	ret

000013ae <lcd_string>:
    13ae:	cf 93       	push	r28
    13b0:	df 93       	push	r29
    13b2:	1f 92       	push	r1
    13b4:	1f 92       	push	r1
    13b6:	cd b7       	in	r28, 0x3d	; 61
    13b8:	de b7       	in	r29, 0x3e	; 62
    13ba:	9a 83       	std	Y+2, r25	; 0x02
    13bc:	89 83       	std	Y+1, r24	; 0x01
    13be:	0a c0       	rjmp	.+20     	; 0x13d4 <lcd_string+0x26>
    13c0:	89 81       	ldd	r24, Y+1	; 0x01
    13c2:	9a 81       	ldd	r25, Y+2	; 0x02
    13c4:	fc 01       	movw	r30, r24
    13c6:	80 81       	ld	r24, Z
    13c8:	77 de       	rcall	.-786    	; 0x10b8 <lcd_wr_char>
    13ca:	89 81       	ldd	r24, Y+1	; 0x01
    13cc:	9a 81       	ldd	r25, Y+2	; 0x02
    13ce:	01 96       	adiw	r24, 0x01	; 1
    13d0:	9a 83       	std	Y+2, r25	; 0x02
    13d2:	89 83       	std	Y+1, r24	; 0x01
    13d4:	89 81       	ldd	r24, Y+1	; 0x01
    13d6:	9a 81       	ldd	r25, Y+2	; 0x02
    13d8:	fc 01       	movw	r30, r24
    13da:	80 81       	ld	r24, Z
    13dc:	88 23       	and	r24, r24
    13de:	81 f7       	brne	.-32     	; 0x13c0 <lcd_string+0x12>
    13e0:	0f 90       	pop	r0
    13e2:	0f 90       	pop	r0
    13e4:	df 91       	pop	r29
    13e6:	cf 91       	pop	r28
    13e8:	08 95       	ret

000013ea <lcd_cursor>:
    13ea:	cf 93       	push	r28
    13ec:	df 93       	push	r29
    13ee:	1f 92       	push	r1
    13f0:	1f 92       	push	r1
    13f2:	cd b7       	in	r28, 0x3d	; 61
    13f4:	de b7       	in	r29, 0x3e	; 62
    13f6:	89 83       	std	Y+1, r24	; 0x01
    13f8:	6a 83       	std	Y+2, r22	; 0x02
    13fa:	89 81       	ldd	r24, Y+1	; 0x01
    13fc:	88 2f       	mov	r24, r24
    13fe:	90 e0       	ldi	r25, 0x00	; 0
    1400:	82 30       	cpi	r24, 0x02	; 2
    1402:	91 05       	cpc	r25, r1
    1404:	91 f0       	breq	.+36     	; 0x142a <lcd_cursor+0x40>
    1406:	83 30       	cpi	r24, 0x03	; 3
    1408:	91 05       	cpc	r25, r1
    140a:	24 f4       	brge	.+8      	; 0x1414 <lcd_cursor+0x2a>
    140c:	81 30       	cpi	r24, 0x01	; 1
    140e:	91 05       	cpc	r25, r1
    1410:	41 f0       	breq	.+16     	; 0x1422 <lcd_cursor+0x38>
    1412:	17 c0       	rjmp	.+46     	; 0x1442 <lcd_cursor+0x58>
    1414:	83 30       	cpi	r24, 0x03	; 3
    1416:	91 05       	cpc	r25, r1
    1418:	61 f0       	breq	.+24     	; 0x1432 <lcd_cursor+0x48>
    141a:	84 30       	cpi	r24, 0x04	; 4
    141c:	91 05       	cpc	r25, r1
    141e:	69 f0       	breq	.+26     	; 0x143a <lcd_cursor+0x50>
    1420:	10 c0       	rjmp	.+32     	; 0x1442 <lcd_cursor+0x58>
    1422:	8a 81       	ldd	r24, Y+2	; 0x02
    1424:	81 58       	subi	r24, 0x81	; 129
    1426:	d6 dc       	rcall	.-1620   	; 0xdd4 <lcd_wr_command>
    1428:	0c c0       	rjmp	.+24     	; 0x1442 <lcd_cursor+0x58>
    142a:	8a 81       	ldd	r24, Y+2	; 0x02
    142c:	81 54       	subi	r24, 0x41	; 65
    142e:	d2 dc       	rcall	.-1628   	; 0xdd4 <lcd_wr_command>
    1430:	08 c0       	rjmp	.+16     	; 0x1442 <lcd_cursor+0x58>
    1432:	8a 81       	ldd	r24, Y+2	; 0x02
    1434:	8d 56       	subi	r24, 0x6D	; 109
    1436:	ce dc       	rcall	.-1636   	; 0xdd4 <lcd_wr_command>
    1438:	04 c0       	rjmp	.+8      	; 0x1442 <lcd_cursor+0x58>
    143a:	8a 81       	ldd	r24, Y+2	; 0x02
    143c:	8d 52       	subi	r24, 0x2D	; 45
    143e:	ca dc       	rcall	.-1644   	; 0xdd4 <lcd_wr_command>
    1440:	00 00       	nop
    1442:	0f 90       	pop	r0
    1444:	0f 90       	pop	r0
    1446:	df 91       	pop	r29
    1448:	cf 91       	pop	r28
    144a:	08 95       	ret

0000144c <lcd_print>:
    144c:	cf 93       	push	r28
    144e:	df 93       	push	r29
    1450:	cd b7       	in	r28, 0x3d	; 61
    1452:	de b7       	in	r29, 0x3e	; 62
    1454:	27 97       	sbiw	r28, 0x07	; 7
    1456:	0f b6       	in	r0, 0x3f	; 63
    1458:	f8 94       	cli
    145a:	de bf       	out	0x3e, r29	; 62
    145c:	0f be       	out	0x3f, r0	; 63
    145e:	cd bf       	out	0x3d, r28	; 61
    1460:	8a 83       	std	Y+2, r24	; 0x02
    1462:	6b 83       	std	Y+3, r22	; 0x03
    1464:	5d 83       	std	Y+5, r21	; 0x05
    1466:	4c 83       	std	Y+4, r20	; 0x04
    1468:	3f 83       	std	Y+7, r19	; 0x07
    146a:	2e 83       	std	Y+6, r18	; 0x06
    146c:	19 82       	std	Y+1, r1	; 0x01
    146e:	8a 81       	ldd	r24, Y+2	; 0x02
    1470:	88 23       	and	r24, r24
    1472:	19 f0       	breq	.+6      	; 0x147a <lcd_print+0x2e>
    1474:	8b 81       	ldd	r24, Y+3	; 0x03
    1476:	88 23       	and	r24, r24
    1478:	11 f4       	brne	.+4      	; 0x147e <lcd_print+0x32>
    147a:	90 df       	rcall	.-224    	; 0x139c <lcd_home>
    147c:	03 c0       	rjmp	.+6      	; 0x1484 <lcd_print+0x38>
    147e:	6b 81       	ldd	r22, Y+3	; 0x03
    1480:	8a 81       	ldd	r24, Y+2	; 0x02
    1482:	b3 df       	rcall	.-154    	; 0x13ea <lcd_cursor>
    1484:	8e 81       	ldd	r24, Y+6	; 0x06
    1486:	9f 81       	ldd	r25, Y+7	; 0x07
    1488:	85 30       	cpi	r24, 0x05	; 5
    148a:	91 05       	cpc	r25, r1
    148c:	19 f0       	breq	.+6      	; 0x1494 <lcd_print+0x48>
    148e:	89 81       	ldd	r24, Y+1	; 0x01
    1490:	81 30       	cpi	r24, 0x01	; 1
    1492:	f9 f4       	brne	.+62     	; 0x14d2 <lcd_print+0x86>
    1494:	8c 81       	ldd	r24, Y+4	; 0x04
    1496:	9d 81       	ldd	r25, Y+5	; 0x05
    1498:	92 95       	swap	r25
    149a:	82 95       	swap	r24
    149c:	8f 70       	andi	r24, 0x0F	; 15
    149e:	89 27       	eor	r24, r25
    14a0:	9f 70       	andi	r25, 0x0F	; 15
    14a2:	89 27       	eor	r24, r25
    14a4:	9c 01       	movw	r18, r24
    14a6:	a7 e4       	ldi	r26, 0x47	; 71
    14a8:	b3 e0       	ldi	r27, 0x03	; 3
    14aa:	0e 94 28 23 	call	0x4650	; 0x4650 <__umulhisi3>
    14ae:	96 95       	lsr	r25
    14b0:	87 95       	ror	r24
    14b2:	96 95       	lsr	r25
    14b4:	87 95       	ror	r24
    14b6:	96 95       	lsr	r25
    14b8:	87 95       	ror	r24
    14ba:	c0 96       	adiw	r24, 0x30	; 48
    14bc:	90 93 22 02 	sts	0x0222, r25
    14c0:	80 93 21 02 	sts	0x0221, r24
    14c4:	80 91 21 02 	lds	r24, 0x0221
    14c8:	90 91 22 02 	lds	r25, 0x0222
    14cc:	f5 dd       	rcall	.-1046   	; 0x10b8 <lcd_wr_char>
    14ce:	81 e0       	ldi	r24, 0x01	; 1
    14d0:	89 83       	std	Y+1, r24	; 0x01
    14d2:	8e 81       	ldd	r24, Y+6	; 0x06
    14d4:	9f 81       	ldd	r25, Y+7	; 0x07
    14d6:	84 30       	cpi	r24, 0x04	; 4
    14d8:	91 05       	cpc	r25, r1
    14da:	21 f0       	breq	.+8      	; 0x14e4 <lcd_print+0x98>
    14dc:	89 81       	ldd	r24, Y+1	; 0x01
    14de:	81 30       	cpi	r24, 0x01	; 1
    14e0:	09 f0       	breq	.+2      	; 0x14e4 <lcd_print+0x98>
    14e2:	3f c0       	rjmp	.+126    	; 0x1562 <lcd_print+0x116>
    14e4:	8c 81       	ldd	r24, Y+4	; 0x04
    14e6:	9d 81       	ldd	r25, Y+5	; 0x05
    14e8:	96 95       	lsr	r25
    14ea:	87 95       	ror	r24
    14ec:	96 95       	lsr	r25
    14ee:	87 95       	ror	r24
    14f0:	96 95       	lsr	r25
    14f2:	87 95       	ror	r24
    14f4:	9c 01       	movw	r18, r24
    14f6:	a5 ec       	ldi	r26, 0xC5	; 197
    14f8:	b0 e2       	ldi	r27, 0x20	; 32
    14fa:	0e 94 28 23 	call	0x4650	; 0x4650 <__umulhisi3>
    14fe:	92 95       	swap	r25
    1500:	82 95       	swap	r24
    1502:	8f 70       	andi	r24, 0x0F	; 15
    1504:	89 27       	eor	r24, r25
    1506:	9f 70       	andi	r25, 0x0F	; 15
    1508:	89 27       	eor	r24, r25
    150a:	90 93 25 02 	sts	0x0225, r25
    150e:	80 93 24 02 	sts	0x0224, r24
    1512:	40 91 24 02 	lds	r20, 0x0224
    1516:	50 91 25 02 	lds	r21, 0x0225
    151a:	9a 01       	movw	r18, r20
    151c:	ad ec       	ldi	r26, 0xCD	; 205
    151e:	bc ec       	ldi	r27, 0xCC	; 204
    1520:	0e 94 28 23 	call	0x4650	; 0x4650 <__umulhisi3>
    1524:	96 95       	lsr	r25
    1526:	87 95       	ror	r24
    1528:	96 95       	lsr	r25
    152a:	87 95       	ror	r24
    152c:	96 95       	lsr	r25
    152e:	87 95       	ror	r24
    1530:	88 0f       	add	r24, r24
    1532:	99 1f       	adc	r25, r25
    1534:	9c 01       	movw	r18, r24
    1536:	22 0f       	add	r18, r18
    1538:	33 1f       	adc	r19, r19
    153a:	22 0f       	add	r18, r18
    153c:	33 1f       	adc	r19, r19
    153e:	82 0f       	add	r24, r18
    1540:	93 1f       	adc	r25, r19
    1542:	9a 01       	movw	r18, r20
    1544:	28 1b       	sub	r18, r24
    1546:	39 0b       	sbc	r19, r25
    1548:	c9 01       	movw	r24, r18
    154a:	c0 96       	adiw	r24, 0x30	; 48
    154c:	90 93 32 02 	sts	0x0232, r25
    1550:	80 93 31 02 	sts	0x0231, r24
    1554:	80 91 31 02 	lds	r24, 0x0231
    1558:	90 91 32 02 	lds	r25, 0x0232
    155c:	ad dd       	rcall	.-1190   	; 0x10b8 <lcd_wr_char>
    155e:	81 e0       	ldi	r24, 0x01	; 1
    1560:	89 83       	std	Y+1, r24	; 0x01
    1562:	8e 81       	ldd	r24, Y+6	; 0x06
    1564:	9f 81       	ldd	r25, Y+7	; 0x07
    1566:	83 30       	cpi	r24, 0x03	; 3
    1568:	91 05       	cpc	r25, r1
    156a:	19 f0       	breq	.+6      	; 0x1572 <lcd_print+0x126>
    156c:	89 81       	ldd	r24, Y+1	; 0x01
    156e:	81 30       	cpi	r24, 0x01	; 1
    1570:	c9 f5       	brne	.+114    	; 0x15e4 <lcd_print+0x198>
    1572:	8c 81       	ldd	r24, Y+4	; 0x04
    1574:	9d 81       	ldd	r25, Y+5	; 0x05
    1576:	96 95       	lsr	r25
    1578:	87 95       	ror	r24
    157a:	96 95       	lsr	r25
    157c:	87 95       	ror	r24
    157e:	9c 01       	movw	r18, r24
    1580:	ab e7       	ldi	r26, 0x7B	; 123
    1582:	b4 e1       	ldi	r27, 0x14	; 20
    1584:	0e 94 28 23 	call	0x4650	; 0x4650 <__umulhisi3>
    1588:	96 95       	lsr	r25
    158a:	87 95       	ror	r24
    158c:	90 93 25 02 	sts	0x0225, r25
    1590:	80 93 24 02 	sts	0x0224, r24
    1594:	40 91 24 02 	lds	r20, 0x0224
    1598:	50 91 25 02 	lds	r21, 0x0225
    159c:	9a 01       	movw	r18, r20
    159e:	ad ec       	ldi	r26, 0xCD	; 205
    15a0:	bc ec       	ldi	r27, 0xCC	; 204
    15a2:	0e 94 28 23 	call	0x4650	; 0x4650 <__umulhisi3>
    15a6:	96 95       	lsr	r25
    15a8:	87 95       	ror	r24
    15aa:	96 95       	lsr	r25
    15ac:	87 95       	ror	r24
    15ae:	96 95       	lsr	r25
    15b0:	87 95       	ror	r24
    15b2:	88 0f       	add	r24, r24
    15b4:	99 1f       	adc	r25, r25
    15b6:	9c 01       	movw	r18, r24
    15b8:	22 0f       	add	r18, r18
    15ba:	33 1f       	adc	r19, r19
    15bc:	22 0f       	add	r18, r18
    15be:	33 1f       	adc	r19, r19
    15c0:	82 0f       	add	r24, r18
    15c2:	93 1f       	adc	r25, r19
    15c4:	9a 01       	movw	r18, r20
    15c6:	28 1b       	sub	r18, r24
    15c8:	39 0b       	sbc	r19, r25
    15ca:	c9 01       	movw	r24, r18
    15cc:	c0 96       	adiw	r24, 0x30	; 48
    15ce:	90 93 2d 02 	sts	0x022D, r25
    15d2:	80 93 2c 02 	sts	0x022C, r24
    15d6:	80 91 2c 02 	lds	r24, 0x022C
    15da:	90 91 2d 02 	lds	r25, 0x022D
    15de:	6c dd       	rcall	.-1320   	; 0x10b8 <lcd_wr_char>
    15e0:	81 e0       	ldi	r24, 0x01	; 1
    15e2:	89 83       	std	Y+1, r24	; 0x01
    15e4:	8e 81       	ldd	r24, Y+6	; 0x06
    15e6:	9f 81       	ldd	r25, Y+7	; 0x07
    15e8:	82 30       	cpi	r24, 0x02	; 2
    15ea:	91 05       	cpc	r25, r1
    15ec:	19 f0       	breq	.+6      	; 0x15f4 <lcd_print+0x1a8>
    15ee:	89 81       	ldd	r24, Y+1	; 0x01
    15f0:	81 30       	cpi	r24, 0x01	; 1
    15f2:	c9 f5       	brne	.+114    	; 0x1666 <lcd_print+0x21a>
    15f4:	8c 81       	ldd	r24, Y+4	; 0x04
    15f6:	9d 81       	ldd	r25, Y+5	; 0x05
    15f8:	9c 01       	movw	r18, r24
    15fa:	ad ec       	ldi	r26, 0xCD	; 205
    15fc:	bc ec       	ldi	r27, 0xCC	; 204
    15fe:	0e 94 28 23 	call	0x4650	; 0x4650 <__umulhisi3>
    1602:	96 95       	lsr	r25
    1604:	87 95       	ror	r24
    1606:	96 95       	lsr	r25
    1608:	87 95       	ror	r24
    160a:	96 95       	lsr	r25
    160c:	87 95       	ror	r24
    160e:	90 93 25 02 	sts	0x0225, r25
    1612:	80 93 24 02 	sts	0x0224, r24
    1616:	40 91 24 02 	lds	r20, 0x0224
    161a:	50 91 25 02 	lds	r21, 0x0225
    161e:	9a 01       	movw	r18, r20
    1620:	ad ec       	ldi	r26, 0xCD	; 205
    1622:	bc ec       	ldi	r27, 0xCC	; 204
    1624:	0e 94 28 23 	call	0x4650	; 0x4650 <__umulhisi3>
    1628:	96 95       	lsr	r25
    162a:	87 95       	ror	r24
    162c:	96 95       	lsr	r25
    162e:	87 95       	ror	r24
    1630:	96 95       	lsr	r25
    1632:	87 95       	ror	r24
    1634:	88 0f       	add	r24, r24
    1636:	99 1f       	adc	r25, r25
    1638:	9c 01       	movw	r18, r24
    163a:	22 0f       	add	r18, r18
    163c:	33 1f       	adc	r19, r19
    163e:	22 0f       	add	r18, r18
    1640:	33 1f       	adc	r19, r19
    1642:	82 0f       	add	r24, r18
    1644:	93 1f       	adc	r25, r19
    1646:	9a 01       	movw	r18, r20
    1648:	28 1b       	sub	r18, r24
    164a:	39 0b       	sbc	r19, r25
    164c:	c9 01       	movw	r24, r18
    164e:	c0 96       	adiw	r24, 0x30	; 48
    1650:	90 93 2b 02 	sts	0x022B, r25
    1654:	80 93 2a 02 	sts	0x022A, r24
    1658:	80 91 2a 02 	lds	r24, 0x022A
    165c:	90 91 2b 02 	lds	r25, 0x022B
    1660:	2b dd       	rcall	.-1450   	; 0x10b8 <lcd_wr_char>
    1662:	81 e0       	ldi	r24, 0x01	; 1
    1664:	89 83       	std	Y+1, r24	; 0x01
    1666:	8e 81       	ldd	r24, Y+6	; 0x06
    1668:	9f 81       	ldd	r25, Y+7	; 0x07
    166a:	81 30       	cpi	r24, 0x01	; 1
    166c:	91 05       	cpc	r25, r1
    166e:	19 f0       	breq	.+6      	; 0x1676 <lcd_print+0x22a>
    1670:	89 81       	ldd	r24, Y+1	; 0x01
    1672:	81 30       	cpi	r24, 0x01	; 1
    1674:	21 f5       	brne	.+72     	; 0x16be <lcd_print+0x272>
    1676:	4c 81       	ldd	r20, Y+4	; 0x04
    1678:	5d 81       	ldd	r21, Y+5	; 0x05
    167a:	9a 01       	movw	r18, r20
    167c:	ad ec       	ldi	r26, 0xCD	; 205
    167e:	bc ec       	ldi	r27, 0xCC	; 204
    1680:	0e 94 28 23 	call	0x4650	; 0x4650 <__umulhisi3>
    1684:	96 95       	lsr	r25
    1686:	87 95       	ror	r24
    1688:	96 95       	lsr	r25
    168a:	87 95       	ror	r24
    168c:	96 95       	lsr	r25
    168e:	87 95       	ror	r24
    1690:	88 0f       	add	r24, r24
    1692:	99 1f       	adc	r25, r25
    1694:	9c 01       	movw	r18, r24
    1696:	22 0f       	add	r18, r18
    1698:	33 1f       	adc	r19, r19
    169a:	22 0f       	add	r18, r18
    169c:	33 1f       	adc	r19, r19
    169e:	82 0f       	add	r24, r18
    16a0:	93 1f       	adc	r25, r19
    16a2:	9a 01       	movw	r18, r20
    16a4:	28 1b       	sub	r18, r24
    16a6:	39 0b       	sbc	r19, r25
    16a8:	c9 01       	movw	r24, r18
    16aa:	c0 96       	adiw	r24, 0x30	; 48
    16ac:	90 93 30 02 	sts	0x0230, r25
    16b0:	80 93 2f 02 	sts	0x022F, r24
    16b4:	80 91 2f 02 	lds	r24, 0x022F
    16b8:	90 91 30 02 	lds	r25, 0x0230
    16bc:	fd dc       	rcall	.-1542   	; 0x10b8 <lcd_wr_char>
    16be:	8e 81       	ldd	r24, Y+6	; 0x06
    16c0:	9f 81       	ldd	r25, Y+7	; 0x07
    16c2:	86 30       	cpi	r24, 0x06	; 6
    16c4:	91 05       	cpc	r25, r1
    16c6:	14 f0       	brlt	.+4      	; 0x16cc <lcd_print+0x280>
    16c8:	85 e4       	ldi	r24, 0x45	; 69
    16ca:	f6 dc       	rcall	.-1556   	; 0x10b8 <lcd_wr_char>
    16cc:	27 96       	adiw	r28, 0x07	; 7
    16ce:	0f b6       	in	r0, 0x3f	; 63
    16d0:	f8 94       	cli
    16d2:	de bf       	out	0x3e, r29	; 62
    16d4:	0f be       	out	0x3f, r0	; 63
    16d6:	cd bf       	out	0x3d, r28	; 61
    16d8:	df 91       	pop	r29
    16da:	cf 91       	pop	r28
    16dc:	08 95       	ret

000016de <buzzer_pin_config>:
    16de:	cf 93       	push	r28
    16e0:	df 93       	push	r29
    16e2:	cd b7       	in	r28, 0x3d	; 61
    16e4:	de b7       	in	r29, 0x3e	; 62
    16e6:	87 e2       	ldi	r24, 0x27	; 39
    16e8:	90 e0       	ldi	r25, 0x00	; 0
    16ea:	27 e2       	ldi	r18, 0x27	; 39
    16ec:	30 e0       	ldi	r19, 0x00	; 0
    16ee:	f9 01       	movw	r30, r18
    16f0:	20 81       	ld	r18, Z
    16f2:	28 60       	ori	r18, 0x08	; 8
    16f4:	fc 01       	movw	r30, r24
    16f6:	20 83       	st	Z, r18
    16f8:	88 e2       	ldi	r24, 0x28	; 40
    16fa:	90 e0       	ldi	r25, 0x00	; 0
    16fc:	28 e2       	ldi	r18, 0x28	; 40
    16fe:	30 e0       	ldi	r19, 0x00	; 0
    1700:	f9 01       	movw	r30, r18
    1702:	20 81       	ld	r18, Z
    1704:	27 7f       	andi	r18, 0xF7	; 247
    1706:	fc 01       	movw	r30, r24
    1708:	20 83       	st	Z, r18
    170a:	df 91       	pop	r29
    170c:	cf 91       	pop	r28
    170e:	08 95       	ret

00001710 <bport_init>:
    1710:	cf 93       	push	r28
    1712:	df 93       	push	r29
    1714:	cd b7       	in	r28, 0x3d	; 61
    1716:	de b7       	in	r29, 0x3e	; 62
    1718:	e2 df       	rcall	.-60     	; 0x16de <buzzer_pin_config>
    171a:	df 91       	pop	r29
    171c:	cf 91       	pop	r28
    171e:	08 95       	ret

00001720 <binit_devices>:
    1720:	cf 93       	push	r28
    1722:	df 93       	push	r29
    1724:	cd b7       	in	r28, 0x3d	; 61
    1726:	de b7       	in	r29, 0x3e	; 62
    1728:	f8 94       	cli
    172a:	f2 df       	rcall	.-28     	; 0x1710 <bport_init>
    172c:	78 94       	sei
    172e:	df 91       	pop	r29
    1730:	cf 91       	pop	r28
    1732:	08 95       	ret

00001734 <lcd_port_config>:
    1734:	cf 93       	push	r28
    1736:	df 93       	push	r29
    1738:	cd b7       	in	r28, 0x3d	; 61
    173a:	de b7       	in	r29, 0x3e	; 62
    173c:	87 e2       	ldi	r24, 0x27	; 39
    173e:	90 e0       	ldi	r25, 0x00	; 0
    1740:	27 e2       	ldi	r18, 0x27	; 39
    1742:	30 e0       	ldi	r19, 0x00	; 0
    1744:	f9 01       	movw	r30, r18
    1746:	20 81       	ld	r18, Z
    1748:	27 6f       	ori	r18, 0xF7	; 247
    174a:	fc 01       	movw	r30, r24
    174c:	20 83       	st	Z, r18
    174e:	88 e2       	ldi	r24, 0x28	; 40
    1750:	90 e0       	ldi	r25, 0x00	; 0
    1752:	28 e2       	ldi	r18, 0x28	; 40
    1754:	30 e0       	ldi	r19, 0x00	; 0
    1756:	f9 01       	movw	r30, r18
    1758:	20 81       	ld	r18, Z
    175a:	20 78       	andi	r18, 0x80	; 128
    175c:	fc 01       	movw	r30, r24
    175e:	20 83       	st	Z, r18
    1760:	df 91       	pop	r29
    1762:	cf 91       	pop	r28
    1764:	08 95       	ret

00001766 <adc_pin_config>:
    1766:	cf 93       	push	r28
    1768:	df 93       	push	r29
    176a:	cd b7       	in	r28, 0x3d	; 61
    176c:	de b7       	in	r29, 0x3e	; 62
    176e:	80 e3       	ldi	r24, 0x30	; 48
    1770:	90 e0       	ldi	r25, 0x00	; 0
    1772:	fc 01       	movw	r30, r24
    1774:	10 82       	st	Z, r1
    1776:	81 e3       	ldi	r24, 0x31	; 49
    1778:	90 e0       	ldi	r25, 0x00	; 0
    177a:	fc 01       	movw	r30, r24
    177c:	10 82       	st	Z, r1
    177e:	87 e0       	ldi	r24, 0x07	; 7
    1780:	91 e0       	ldi	r25, 0x01	; 1
    1782:	fc 01       	movw	r30, r24
    1784:	10 82       	st	Z, r1
    1786:	88 e0       	ldi	r24, 0x08	; 8
    1788:	91 e0       	ldi	r25, 0x01	; 1
    178a:	fc 01       	movw	r30, r24
    178c:	10 82       	st	Z, r1
    178e:	df 91       	pop	r29
    1790:	cf 91       	pop	r28
    1792:	08 95       	ret

00001794 <port_init>:
    1794:	cf 93       	push	r28
    1796:	df 93       	push	r29
    1798:	cd b7       	in	r28, 0x3d	; 61
    179a:	de b7       	in	r29, 0x3e	; 62
    179c:	cb df       	rcall	.-106    	; 0x1734 <lcd_port_config>
    179e:	e3 df       	rcall	.-58     	; 0x1766 <adc_pin_config>
    17a0:	5c d3       	rcall	.+1720   	; 0x1e5a <motion_pin_config>
    17a2:	86 d3       	rcall	.+1804   	; 0x1eb0 <left_encoder_pin_config>
    17a4:	9e d3       	rcall	.+1852   	; 0x1ee2 <right_encoder_pin_config>
    17a6:	df 91       	pop	r29
    17a8:	cf 91       	pop	r28
    17aa:	08 95       	ret

000017ac <adc_init>:
    17ac:	cf 93       	push	r28
    17ae:	df 93       	push	r29
    17b0:	cd b7       	in	r28, 0x3d	; 61
    17b2:	de b7       	in	r29, 0x3e	; 62
    17b4:	8a e7       	ldi	r24, 0x7A	; 122
    17b6:	90 e0       	ldi	r25, 0x00	; 0
    17b8:	fc 01       	movw	r30, r24
    17ba:	10 82       	st	Z, r1
    17bc:	8b e7       	ldi	r24, 0x7B	; 123
    17be:	90 e0       	ldi	r25, 0x00	; 0
    17c0:	fc 01       	movw	r30, r24
    17c2:	10 82       	st	Z, r1
    17c4:	8c e7       	ldi	r24, 0x7C	; 124
    17c6:	90 e0       	ldi	r25, 0x00	; 0
    17c8:	20 e2       	ldi	r18, 0x20	; 32
    17ca:	fc 01       	movw	r30, r24
    17cc:	20 83       	st	Z, r18
    17ce:	80 e5       	ldi	r24, 0x50	; 80
    17d0:	90 e0       	ldi	r25, 0x00	; 0
    17d2:	20 e8       	ldi	r18, 0x80	; 128
    17d4:	fc 01       	movw	r30, r24
    17d6:	20 83       	st	Z, r18
    17d8:	8a e7       	ldi	r24, 0x7A	; 122
    17da:	90 e0       	ldi	r25, 0x00	; 0
    17dc:	26 e8       	ldi	r18, 0x86	; 134
    17de:	fc 01       	movw	r30, r24
    17e0:	20 83       	st	Z, r18
    17e2:	df 91       	pop	r29
    17e4:	cf 91       	pop	r28
    17e6:	08 95       	ret

000017e8 <ADC_Conversion>:
    17e8:	cf 93       	push	r28
    17ea:	df 93       	push	r29
    17ec:	1f 92       	push	r1
    17ee:	1f 92       	push	r1
    17f0:	cd b7       	in	r28, 0x3d	; 61
    17f2:	de b7       	in	r29, 0x3e	; 62
    17f4:	8a 83       	std	Y+2, r24	; 0x02
    17f6:	8a 81       	ldd	r24, Y+2	; 0x02
    17f8:	88 30       	cpi	r24, 0x08	; 8
    17fa:	28 f0       	brcs	.+10     	; 0x1806 <ADC_Conversion+0x1e>
    17fc:	8b e7       	ldi	r24, 0x7B	; 123
    17fe:	90 e0       	ldi	r25, 0x00	; 0
    1800:	28 e0       	ldi	r18, 0x08	; 8
    1802:	fc 01       	movw	r30, r24
    1804:	20 83       	st	Z, r18
    1806:	8a 81       	ldd	r24, Y+2	; 0x02
    1808:	87 70       	andi	r24, 0x07	; 7
    180a:	8a 83       	std	Y+2, r24	; 0x02
    180c:	8c e7       	ldi	r24, 0x7C	; 124
    180e:	90 e0       	ldi	r25, 0x00	; 0
    1810:	2a 81       	ldd	r18, Y+2	; 0x02
    1812:	20 62       	ori	r18, 0x20	; 32
    1814:	fc 01       	movw	r30, r24
    1816:	20 83       	st	Z, r18
    1818:	8a e7       	ldi	r24, 0x7A	; 122
    181a:	90 e0       	ldi	r25, 0x00	; 0
    181c:	2a e7       	ldi	r18, 0x7A	; 122
    181e:	30 e0       	ldi	r19, 0x00	; 0
    1820:	f9 01       	movw	r30, r18
    1822:	20 81       	ld	r18, Z
    1824:	20 64       	ori	r18, 0x40	; 64
    1826:	fc 01       	movw	r30, r24
    1828:	20 83       	st	Z, r18
    182a:	00 00       	nop
    182c:	8a e7       	ldi	r24, 0x7A	; 122
    182e:	90 e0       	ldi	r25, 0x00	; 0
    1830:	fc 01       	movw	r30, r24
    1832:	80 81       	ld	r24, Z
    1834:	88 2f       	mov	r24, r24
    1836:	90 e0       	ldi	r25, 0x00	; 0
    1838:	80 71       	andi	r24, 0x10	; 16
    183a:	99 27       	eor	r25, r25
    183c:	00 97       	sbiw	r24, 0x00	; 0
    183e:	b1 f3       	breq	.-20     	; 0x182c <ADC_Conversion+0x44>
    1840:	89 e7       	ldi	r24, 0x79	; 121
    1842:	90 e0       	ldi	r25, 0x00	; 0
    1844:	fc 01       	movw	r30, r24
    1846:	80 81       	ld	r24, Z
    1848:	89 83       	std	Y+1, r24	; 0x01
    184a:	8a e7       	ldi	r24, 0x7A	; 122
    184c:	90 e0       	ldi	r25, 0x00	; 0
    184e:	2a e7       	ldi	r18, 0x7A	; 122
    1850:	30 e0       	ldi	r19, 0x00	; 0
    1852:	f9 01       	movw	r30, r18
    1854:	20 81       	ld	r18, Z
    1856:	20 61       	ori	r18, 0x10	; 16
    1858:	fc 01       	movw	r30, r24
    185a:	20 83       	st	Z, r18
    185c:	8b e7       	ldi	r24, 0x7B	; 123
    185e:	90 e0       	ldi	r25, 0x00	; 0
    1860:	fc 01       	movw	r30, r24
    1862:	10 82       	st	Z, r1
    1864:	89 81       	ldd	r24, Y+1	; 0x01
    1866:	0f 90       	pop	r0
    1868:	0f 90       	pop	r0
    186a:	df 91       	pop	r29
    186c:	cf 91       	pop	r28
    186e:	08 95       	ret

00001870 <Sharp_GP2D12_estimation>:
    1870:	cf 93       	push	r28
    1872:	df 93       	push	r29
    1874:	cd b7       	in	r28, 0x3d	; 61
    1876:	de b7       	in	r29, 0x3e	; 62
    1878:	27 97       	sbiw	r28, 0x07	; 7
    187a:	0f b6       	in	r0, 0x3f	; 63
    187c:	f8 94       	cli
    187e:	de bf       	out	0x3e, r29	; 62
    1880:	0f be       	out	0x3f, r0	; 63
    1882:	cd bf       	out	0x3d, r28	; 61
    1884:	8f 83       	std	Y+7, r24	; 0x07
    1886:	8f 81       	ldd	r24, Y+7	; 0x07
    1888:	88 2f       	mov	r24, r24
    188a:	90 e0       	ldi	r25, 0x00	; 0
    188c:	a0 e0       	ldi	r26, 0x00	; 0
    188e:	b0 e0       	ldi	r27, 0x00	; 0
    1890:	bc 01       	movw	r22, r24
    1892:	cd 01       	movw	r24, r26
    1894:	0e 94 aa 20 	call	0x4154	; 0x4154 <__floatunsisf>
    1898:	dc 01       	movw	r26, r24
    189a:	cb 01       	movw	r24, r22
    189c:	2f ee       	ldi	r18, 0xEF	; 239
    189e:	39 ec       	ldi	r19, 0xC9	; 201
    18a0:	43 e9       	ldi	r20, 0x93	; 147
    18a2:	5f e3       	ldi	r21, 0x3F	; 63
    18a4:	bc 01       	movw	r22, r24
    18a6:	cd 01       	movw	r24, r26
    18a8:	0e 94 c3 21 	call	0x4386	; 0x4386 <pow>
    18ac:	dc 01       	movw	r26, r24
    18ae:	cb 01       	movw	r24, r22
    18b0:	9c 01       	movw	r18, r24
    18b2:	ad 01       	movw	r20, r26
    18b4:	60 e0       	ldi	r22, 0x00	; 0
    18b6:	70 e0       	ldi	r23, 0x00	; 0
    18b8:	80 e8       	ldi	r24, 0x80	; 128
    18ba:	9f e3       	ldi	r25, 0x3F	; 63
    18bc:	0e 94 11 20 	call	0x4022	; 0x4022 <__divsf3>
    18c0:	dc 01       	movw	r26, r24
    18c2:	cb 01       	movw	r24, r22
    18c4:	2a e9       	ldi	r18, 0x9A	; 154
    18c6:	39 ef       	ldi	r19, 0xF9	; 249
    18c8:	4e e2       	ldi	r20, 0x2E	; 46
    18ca:	55 e4       	ldi	r21, 0x45	; 69
    18cc:	bc 01       	movw	r22, r24
    18ce:	cd 01       	movw	r24, r26
    18d0:	0e 94 60 21 	call	0x42c0	; 0x42c0 <__mulsf3>
    18d4:	dc 01       	movw	r26, r24
    18d6:	cb 01       	movw	r24, r22
    18d8:	20 e0       	ldi	r18, 0x00	; 0
    18da:	30 e0       	ldi	r19, 0x00	; 0
    18dc:	40 e2       	ldi	r20, 0x20	; 32
    18de:	51 e4       	ldi	r21, 0x41	; 65
    18e0:	bc 01       	movw	r22, r24
    18e2:	cd 01       	movw	r24, r26
    18e4:	0e 94 60 21 	call	0x42c0	; 0x42c0 <__mulsf3>
    18e8:	dc 01       	movw	r26, r24
    18ea:	cb 01       	movw	r24, r22
    18ec:	bc 01       	movw	r22, r24
    18ee:	cd 01       	movw	r24, r26
    18f0:	0e 94 79 20 	call	0x40f2	; 0x40f2 <__fixsfsi>
    18f4:	dc 01       	movw	r26, r24
    18f6:	cb 01       	movw	r24, r22
    18f8:	aa 27       	eor	r26, r26
    18fa:	97 fd       	sbrc	r25, 7
    18fc:	a0 95       	com	r26
    18fe:	ba 2f       	mov	r27, r26
    1900:	bc 01       	movw	r22, r24
    1902:	cd 01       	movw	r24, r26
    1904:	0e 94 ac 20 	call	0x4158	; 0x4158 <__floatsisf>
    1908:	dc 01       	movw	r26, r24
    190a:	cb 01       	movw	r24, r22
    190c:	8b 83       	std	Y+3, r24	; 0x03
    190e:	9c 83       	std	Y+4, r25	; 0x04
    1910:	ad 83       	std	Y+5, r26	; 0x05
    1912:	be 83       	std	Y+6, r27	; 0x06
    1914:	6b 81       	ldd	r22, Y+3	; 0x03
    1916:	7c 81       	ldd	r23, Y+4	; 0x04
    1918:	8d 81       	ldd	r24, Y+5	; 0x05
    191a:	9e 81       	ldd	r25, Y+6	; 0x06
    191c:	0e 94 79 20 	call	0x40f2	; 0x40f2 <__fixsfsi>
    1920:	dc 01       	movw	r26, r24
    1922:	cb 01       	movw	r24, r22
    1924:	9a 83       	std	Y+2, r25	; 0x02
    1926:	89 83       	std	Y+1, r24	; 0x01
    1928:	89 81       	ldd	r24, Y+1	; 0x01
    192a:	9a 81       	ldd	r25, Y+2	; 0x02
    192c:	81 32       	cpi	r24, 0x21	; 33
    192e:	23 e0       	ldi	r18, 0x03	; 3
    1930:	92 07       	cpc	r25, r18
    1932:	20 f0       	brcs	.+8      	; 0x193c <Sharp_GP2D12_estimation+0xcc>
    1934:	80 e2       	ldi	r24, 0x20	; 32
    1936:	93 e0       	ldi	r25, 0x03	; 3
    1938:	9a 83       	std	Y+2, r25	; 0x02
    193a:	89 83       	std	Y+1, r24	; 0x01
    193c:	89 81       	ldd	r24, Y+1	; 0x01
    193e:	9a 81       	ldd	r25, Y+2	; 0x02
    1940:	27 96       	adiw	r28, 0x07	; 7
    1942:	0f b6       	in	r0, 0x3f	; 63
    1944:	f8 94       	cli
    1946:	de bf       	out	0x3e, r29	; 62
    1948:	0f be       	out	0x3f, r0	; 63
    194a:	cd bf       	out	0x3d, r28	; 61
    194c:	df 91       	pop	r29
    194e:	cf 91       	pop	r28
    1950:	08 95       	ret

00001952 <init_devices>:
    1952:	cf 93       	push	r28
    1954:	df 93       	push	r29
    1956:	cd b7       	in	r28, 0x3d	; 61
    1958:	de b7       	in	r29, 0x3e	; 62
    195a:	f8 94       	cli
    195c:	1b df       	rcall	.-458    	; 0x1794 <port_init>
    195e:	26 df       	rcall	.-436    	; 0x17ac <adc_init>
    1960:	aa d9       	rcall	.-3244   	; 0xcb6 <lcd_init>
    1962:	41 d0       	rcall	.+130    	; 0x19e6 <timer5_init>
    1964:	d7 d2       	rcall	.+1454   	; 0x1f14 <left_position_encoder_interrupt_init>
    1966:	f1 d2       	rcall	.+1506   	; 0x1f4a <right_position_encoder_interrupt_init>
    1968:	78 94       	sei
    196a:	df 91       	pop	r29
    196c:	cf 91       	pop	r28
    196e:	08 95       	ret

00001970 <servo1_pin_config>:
    1970:	cf 93       	push	r28
    1972:	df 93       	push	r29
    1974:	cd b7       	in	r28, 0x3d	; 61
    1976:	de b7       	in	r29, 0x3e	; 62
    1978:	84 e2       	ldi	r24, 0x24	; 36
    197a:	90 e0       	ldi	r25, 0x00	; 0
    197c:	24 e2       	ldi	r18, 0x24	; 36
    197e:	30 e0       	ldi	r19, 0x00	; 0
    1980:	f9 01       	movw	r30, r18
    1982:	20 81       	ld	r18, Z
    1984:	20 62       	ori	r18, 0x20	; 32
    1986:	fc 01       	movw	r30, r24
    1988:	20 83       	st	Z, r18
    198a:	85 e2       	ldi	r24, 0x25	; 37
    198c:	90 e0       	ldi	r25, 0x00	; 0
    198e:	25 e2       	ldi	r18, 0x25	; 37
    1990:	30 e0       	ldi	r19, 0x00	; 0
    1992:	f9 01       	movw	r30, r18
    1994:	20 81       	ld	r18, Z
    1996:	20 62       	ori	r18, 0x20	; 32
    1998:	fc 01       	movw	r30, r24
    199a:	20 83       	st	Z, r18
    199c:	df 91       	pop	r29
    199e:	cf 91       	pop	r28
    19a0:	08 95       	ret

000019a2 <servo2_pin_config>:
    19a2:	cf 93       	push	r28
    19a4:	df 93       	push	r29
    19a6:	cd b7       	in	r28, 0x3d	; 61
    19a8:	de b7       	in	r29, 0x3e	; 62
    19aa:	84 e2       	ldi	r24, 0x24	; 36
    19ac:	90 e0       	ldi	r25, 0x00	; 0
    19ae:	24 e2       	ldi	r18, 0x24	; 36
    19b0:	30 e0       	ldi	r19, 0x00	; 0
    19b2:	f9 01       	movw	r30, r18
    19b4:	20 81       	ld	r18, Z
    19b6:	20 64       	ori	r18, 0x40	; 64
    19b8:	fc 01       	movw	r30, r24
    19ba:	20 83       	st	Z, r18
    19bc:	85 e2       	ldi	r24, 0x25	; 37
    19be:	90 e0       	ldi	r25, 0x00	; 0
    19c0:	25 e2       	ldi	r18, 0x25	; 37
    19c2:	30 e0       	ldi	r19, 0x00	; 0
    19c4:	f9 01       	movw	r30, r18
    19c6:	20 81       	ld	r18, Z
    19c8:	20 64       	ori	r18, 0x40	; 64
    19ca:	fc 01       	movw	r30, r24
    19cc:	20 83       	st	Z, r18
    19ce:	df 91       	pop	r29
    19d0:	cf 91       	pop	r28
    19d2:	08 95       	ret

000019d4 <s_port_init>:
    19d4:	cf 93       	push	r28
    19d6:	df 93       	push	r29
    19d8:	cd b7       	in	r28, 0x3d	; 61
    19da:	de b7       	in	r29, 0x3e	; 62
    19dc:	c9 df       	rcall	.-110    	; 0x1970 <servo1_pin_config>
    19de:	e1 df       	rcall	.-62     	; 0x19a2 <servo2_pin_config>
    19e0:	df 91       	pop	r29
    19e2:	cf 91       	pop	r28
    19e4:	08 95       	ret

000019e6 <timer5_init>:
    19e6:	cf 93       	push	r28
    19e8:	df 93       	push	r29
    19ea:	cd b7       	in	r28, 0x3d	; 61
    19ec:	de b7       	in	r29, 0x3e	; 62
    19ee:	81 e2       	ldi	r24, 0x21	; 33
    19f0:	91 e0       	ldi	r25, 0x01	; 1
    19f2:	fc 01       	movw	r30, r24
    19f4:	10 82       	st	Z, r1
    19f6:	85 e2       	ldi	r24, 0x25	; 37
    19f8:	91 e0       	ldi	r25, 0x01	; 1
    19fa:	2f ef       	ldi	r18, 0xFF	; 255
    19fc:	fc 01       	movw	r30, r24
    19fe:	20 83       	st	Z, r18
    1a00:	84 e2       	ldi	r24, 0x24	; 36
    1a02:	91 e0       	ldi	r25, 0x01	; 1
    1a04:	21 e0       	ldi	r18, 0x01	; 1
    1a06:	fc 01       	movw	r30, r24
    1a08:	20 83       	st	Z, r18
    1a0a:	89 e2       	ldi	r24, 0x29	; 41
    1a0c:	91 e0       	ldi	r25, 0x01	; 1
    1a0e:	fc 01       	movw	r30, r24
    1a10:	10 82       	st	Z, r1
    1a12:	88 e2       	ldi	r24, 0x28	; 40
    1a14:	91 e0       	ldi	r25, 0x01	; 1
    1a16:	2f ef       	ldi	r18, 0xFF	; 255
    1a18:	fc 01       	movw	r30, r24
    1a1a:	20 83       	st	Z, r18
    1a1c:	8b e2       	ldi	r24, 0x2B	; 43
    1a1e:	91 e0       	ldi	r25, 0x01	; 1
    1a20:	fc 01       	movw	r30, r24
    1a22:	10 82       	st	Z, r1
    1a24:	8a e2       	ldi	r24, 0x2A	; 42
    1a26:	91 e0       	ldi	r25, 0x01	; 1
    1a28:	2f ef       	ldi	r18, 0xFF	; 255
    1a2a:	fc 01       	movw	r30, r24
    1a2c:	20 83       	st	Z, r18
    1a2e:	8d e2       	ldi	r24, 0x2D	; 45
    1a30:	91 e0       	ldi	r25, 0x01	; 1
    1a32:	fc 01       	movw	r30, r24
    1a34:	10 82       	st	Z, r1
    1a36:	8c e2       	ldi	r24, 0x2C	; 44
    1a38:	91 e0       	ldi	r25, 0x01	; 1
    1a3a:	2f ef       	ldi	r18, 0xFF	; 255
    1a3c:	fc 01       	movw	r30, r24
    1a3e:	20 83       	st	Z, r18
    1a40:	80 e2       	ldi	r24, 0x20	; 32
    1a42:	91 e0       	ldi	r25, 0x01	; 1
    1a44:	29 ea       	ldi	r18, 0xA9	; 169
    1a46:	fc 01       	movw	r30, r24
    1a48:	20 83       	st	Z, r18
    1a4a:	81 e2       	ldi	r24, 0x21	; 33
    1a4c:	91 e0       	ldi	r25, 0x01	; 1
    1a4e:	2b e0       	ldi	r18, 0x0B	; 11
    1a50:	fc 01       	movw	r30, r24
    1a52:	20 83       	st	Z, r18
    1a54:	df 91       	pop	r29
    1a56:	cf 91       	pop	r28
    1a58:	08 95       	ret

00001a5a <velocity>:
    1a5a:	cf 93       	push	r28
    1a5c:	df 93       	push	r29
    1a5e:	1f 92       	push	r1
    1a60:	1f 92       	push	r1
    1a62:	cd b7       	in	r28, 0x3d	; 61
    1a64:	de b7       	in	r29, 0x3e	; 62
    1a66:	89 83       	std	Y+1, r24	; 0x01
    1a68:	6a 83       	std	Y+2, r22	; 0x02
    1a6a:	88 e2       	ldi	r24, 0x28	; 40
    1a6c:	91 e0       	ldi	r25, 0x01	; 1
    1a6e:	29 81       	ldd	r18, Y+1	; 0x01
    1a70:	fc 01       	movw	r30, r24
    1a72:	20 83       	st	Z, r18
    1a74:	8a e2       	ldi	r24, 0x2A	; 42
    1a76:	91 e0       	ldi	r25, 0x01	; 1
    1a78:	2a 81       	ldd	r18, Y+2	; 0x02
    1a7a:	fc 01       	movw	r30, r24
    1a7c:	20 83       	st	Z, r18
    1a7e:	0f 90       	pop	r0
    1a80:	0f 90       	pop	r0
    1a82:	df 91       	pop	r29
    1a84:	cf 91       	pop	r28
    1a86:	08 95       	ret

00001a88 <timer1_init>:
    1a88:	cf 93       	push	r28
    1a8a:	df 93       	push	r29
    1a8c:	cd b7       	in	r28, 0x3d	; 61
    1a8e:	de b7       	in	r29, 0x3e	; 62
    1a90:	81 e8       	ldi	r24, 0x81	; 129
    1a92:	90 e0       	ldi	r25, 0x00	; 0
    1a94:	fc 01       	movw	r30, r24
    1a96:	10 82       	st	Z, r1
    1a98:	85 e8       	ldi	r24, 0x85	; 133
    1a9a:	90 e0       	ldi	r25, 0x00	; 0
    1a9c:	2c ef       	ldi	r18, 0xFC	; 252
    1a9e:	fc 01       	movw	r30, r24
    1aa0:	20 83       	st	Z, r18
    1aa2:	84 e8       	ldi	r24, 0x84	; 132
    1aa4:	90 e0       	ldi	r25, 0x00	; 0
    1aa6:	21 e0       	ldi	r18, 0x01	; 1
    1aa8:	fc 01       	movw	r30, r24
    1aaa:	20 83       	st	Z, r18
    1aac:	89 e8       	ldi	r24, 0x89	; 137
    1aae:	90 e0       	ldi	r25, 0x00	; 0
    1ab0:	23 e0       	ldi	r18, 0x03	; 3
    1ab2:	fc 01       	movw	r30, r24
    1ab4:	20 83       	st	Z, r18
    1ab6:	88 e8       	ldi	r24, 0x88	; 136
    1ab8:	90 e0       	ldi	r25, 0x00	; 0
    1aba:	2f ef       	ldi	r18, 0xFF	; 255
    1abc:	fc 01       	movw	r30, r24
    1abe:	20 83       	st	Z, r18
    1ac0:	8b e8       	ldi	r24, 0x8B	; 139
    1ac2:	90 e0       	ldi	r25, 0x00	; 0
    1ac4:	23 e0       	ldi	r18, 0x03	; 3
    1ac6:	fc 01       	movw	r30, r24
    1ac8:	20 83       	st	Z, r18
    1aca:	8a e8       	ldi	r24, 0x8A	; 138
    1acc:	90 e0       	ldi	r25, 0x00	; 0
    1ace:	2f ef       	ldi	r18, 0xFF	; 255
    1ad0:	fc 01       	movw	r30, r24
    1ad2:	20 83       	st	Z, r18
    1ad4:	8d e8       	ldi	r24, 0x8D	; 141
    1ad6:	90 e0       	ldi	r25, 0x00	; 0
    1ad8:	23 e0       	ldi	r18, 0x03	; 3
    1ada:	fc 01       	movw	r30, r24
    1adc:	20 83       	st	Z, r18
    1ade:	8c e8       	ldi	r24, 0x8C	; 140
    1ae0:	90 e0       	ldi	r25, 0x00	; 0
    1ae2:	2f ef       	ldi	r18, 0xFF	; 255
    1ae4:	fc 01       	movw	r30, r24
    1ae6:	20 83       	st	Z, r18
    1ae8:	87 e8       	ldi	r24, 0x87	; 135
    1aea:	90 e0       	ldi	r25, 0x00	; 0
    1aec:	23 e0       	ldi	r18, 0x03	; 3
    1aee:	fc 01       	movw	r30, r24
    1af0:	20 83       	st	Z, r18
    1af2:	86 e8       	ldi	r24, 0x86	; 134
    1af4:	90 e0       	ldi	r25, 0x00	; 0
    1af6:	2f ef       	ldi	r18, 0xFF	; 255
    1af8:	fc 01       	movw	r30, r24
    1afa:	20 83       	st	Z, r18
    1afc:	80 e8       	ldi	r24, 0x80	; 128
    1afe:	90 e0       	ldi	r25, 0x00	; 0
    1b00:	2b ea       	ldi	r18, 0xAB	; 171
    1b02:	fc 01       	movw	r30, r24
    1b04:	20 83       	st	Z, r18
    1b06:	82 e8       	ldi	r24, 0x82	; 130
    1b08:	90 e0       	ldi	r25, 0x00	; 0
    1b0a:	fc 01       	movw	r30, r24
    1b0c:	10 82       	st	Z, r1
    1b0e:	81 e8       	ldi	r24, 0x81	; 129
    1b10:	90 e0       	ldi	r25, 0x00	; 0
    1b12:	2c e0       	ldi	r18, 0x0C	; 12
    1b14:	fc 01       	movw	r30, r24
    1b16:	20 83       	st	Z, r18
    1b18:	df 91       	pop	r29
    1b1a:	cf 91       	pop	r28
    1b1c:	08 95       	ret

00001b1e <sinit_devices>:
    1b1e:	cf 93       	push	r28
    1b20:	df 93       	push	r29
    1b22:	cd b7       	in	r28, 0x3d	; 61
    1b24:	de b7       	in	r29, 0x3e	; 62
    1b26:	f8 94       	cli
    1b28:	55 df       	rcall	.-342    	; 0x19d4 <s_port_init>
    1b2a:	ae df       	rcall	.-164    	; 0x1a88 <timer1_init>
    1b2c:	78 94       	sei
    1b2e:	df 91       	pop	r29
    1b30:	cf 91       	pop	r28
    1b32:	08 95       	ret

00001b34 <servo_1>:
    1b34:	0f 93       	push	r16
    1b36:	1f 93       	push	r17
    1b38:	cf 93       	push	r28
    1b3a:	df 93       	push	r29
    1b3c:	00 d0       	rcall	.+0      	; 0x1b3e <servo_1+0xa>
    1b3e:	1f 92       	push	r1
    1b40:	1f 92       	push	r1
    1b42:	cd b7       	in	r28, 0x3d	; 61
    1b44:	de b7       	in	r29, 0x3e	; 62
    1b46:	8d 83       	std	Y+5, r24	; 0x05
    1b48:	19 82       	std	Y+1, r1	; 0x01
    1b4a:	1a 82       	std	Y+2, r1	; 0x02
    1b4c:	1b 82       	std	Y+3, r1	; 0x03
    1b4e:	1c 82       	std	Y+4, r1	; 0x04
    1b50:	8d 81       	ldd	r24, Y+5	; 0x05
    1b52:	88 2f       	mov	r24, r24
    1b54:	90 e0       	ldi	r25, 0x00	; 0
    1b56:	a0 e0       	ldi	r26, 0x00	; 0
    1b58:	b0 e0       	ldi	r27, 0x00	; 0
    1b5a:	bc 01       	movw	r22, r24
    1b5c:	cd 01       	movw	r24, r26
    1b5e:	0e 94 aa 20 	call	0x4154	; 0x4154 <__floatunsisf>
    1b62:	dc 01       	movw	r26, r24
    1b64:	cb 01       	movw	r24, r22
    1b66:	2b e7       	ldi	r18, 0x7B	; 123
    1b68:	34 e1       	ldi	r19, 0x14	; 20
    1b6a:	4e ee       	ldi	r20, 0xEE	; 238
    1b6c:	5f e3       	ldi	r21, 0x3F	; 63
    1b6e:	bc 01       	movw	r22, r24
    1b70:	cd 01       	movw	r24, r26
    1b72:	0e 94 11 20 	call	0x4022	; 0x4022 <__divsf3>
    1b76:	dc 01       	movw	r26, r24
    1b78:	cb 01       	movw	r24, r22
    1b7a:	20 e0       	ldi	r18, 0x00	; 0
    1b7c:	30 e0       	ldi	r19, 0x00	; 0
    1b7e:	4c e0       	ldi	r20, 0x0C	; 12
    1b80:	52 e4       	ldi	r21, 0x42	; 66
    1b82:	bc 01       	movw	r22, r24
    1b84:	cd 01       	movw	r24, r26
    1b86:	0e 94 a9 1f 	call	0x3f52	; 0x3f52 <__addsf3>
    1b8a:	dc 01       	movw	r26, r24
    1b8c:	cb 01       	movw	r24, r22
    1b8e:	89 83       	std	Y+1, r24	; 0x01
    1b90:	9a 83       	std	Y+2, r25	; 0x02
    1b92:	ab 83       	std	Y+3, r26	; 0x03
    1b94:	bc 83       	std	Y+4, r27	; 0x04
    1b96:	89 e8       	ldi	r24, 0x89	; 137
    1b98:	90 e0       	ldi	r25, 0x00	; 0
    1b9a:	fc 01       	movw	r30, r24
    1b9c:	10 82       	st	Z, r1
    1b9e:	08 e8       	ldi	r16, 0x88	; 136
    1ba0:	10 e0       	ldi	r17, 0x00	; 0
    1ba2:	69 81       	ldd	r22, Y+1	; 0x01
    1ba4:	7a 81       	ldd	r23, Y+2	; 0x02
    1ba6:	8b 81       	ldd	r24, Y+3	; 0x03
    1ba8:	9c 81       	ldd	r25, Y+4	; 0x04
    1baa:	0e 94 7e 20 	call	0x40fc	; 0x40fc <__fixunssfsi>
    1bae:	dc 01       	movw	r26, r24
    1bb0:	cb 01       	movw	r24, r22
    1bb2:	f8 01       	movw	r30, r16
    1bb4:	80 83       	st	Z, r24
    1bb6:	0f 90       	pop	r0
    1bb8:	0f 90       	pop	r0
    1bba:	0f 90       	pop	r0
    1bbc:	0f 90       	pop	r0
    1bbe:	0f 90       	pop	r0
    1bc0:	df 91       	pop	r29
    1bc2:	cf 91       	pop	r28
    1bc4:	1f 91       	pop	r17
    1bc6:	0f 91       	pop	r16
    1bc8:	08 95       	ret

00001bca <servo_2>:
    1bca:	0f 93       	push	r16
    1bcc:	1f 93       	push	r17
    1bce:	cf 93       	push	r28
    1bd0:	df 93       	push	r29
    1bd2:	00 d0       	rcall	.+0      	; 0x1bd4 <servo_2+0xa>
    1bd4:	1f 92       	push	r1
    1bd6:	1f 92       	push	r1
    1bd8:	cd b7       	in	r28, 0x3d	; 61
    1bda:	de b7       	in	r29, 0x3e	; 62
    1bdc:	8d 83       	std	Y+5, r24	; 0x05
    1bde:	19 82       	std	Y+1, r1	; 0x01
    1be0:	1a 82       	std	Y+2, r1	; 0x02
    1be2:	1b 82       	std	Y+3, r1	; 0x03
    1be4:	1c 82       	std	Y+4, r1	; 0x04
    1be6:	8d 81       	ldd	r24, Y+5	; 0x05
    1be8:	88 2f       	mov	r24, r24
    1bea:	90 e0       	ldi	r25, 0x00	; 0
    1bec:	a0 e0       	ldi	r26, 0x00	; 0
    1bee:	b0 e0       	ldi	r27, 0x00	; 0
    1bf0:	bc 01       	movw	r22, r24
    1bf2:	cd 01       	movw	r24, r26
    1bf4:	0e 94 aa 20 	call	0x4154	; 0x4154 <__floatunsisf>
    1bf8:	dc 01       	movw	r26, r24
    1bfa:	cb 01       	movw	r24, r22
    1bfc:	2b e7       	ldi	r18, 0x7B	; 123
    1bfe:	34 e1       	ldi	r19, 0x14	; 20
    1c00:	4e ee       	ldi	r20, 0xEE	; 238
    1c02:	5f e3       	ldi	r21, 0x3F	; 63
    1c04:	bc 01       	movw	r22, r24
    1c06:	cd 01       	movw	r24, r26
    1c08:	0e 94 11 20 	call	0x4022	; 0x4022 <__divsf3>
    1c0c:	dc 01       	movw	r26, r24
    1c0e:	cb 01       	movw	r24, r22
    1c10:	20 e0       	ldi	r18, 0x00	; 0
    1c12:	30 e0       	ldi	r19, 0x00	; 0
    1c14:	4c e0       	ldi	r20, 0x0C	; 12
    1c16:	52 e4       	ldi	r21, 0x42	; 66
    1c18:	bc 01       	movw	r22, r24
    1c1a:	cd 01       	movw	r24, r26
    1c1c:	0e 94 a9 1f 	call	0x3f52	; 0x3f52 <__addsf3>
    1c20:	dc 01       	movw	r26, r24
    1c22:	cb 01       	movw	r24, r22
    1c24:	89 83       	std	Y+1, r24	; 0x01
    1c26:	9a 83       	std	Y+2, r25	; 0x02
    1c28:	ab 83       	std	Y+3, r26	; 0x03
    1c2a:	bc 83       	std	Y+4, r27	; 0x04
    1c2c:	8b e8       	ldi	r24, 0x8B	; 139
    1c2e:	90 e0       	ldi	r25, 0x00	; 0
    1c30:	fc 01       	movw	r30, r24
    1c32:	10 82       	st	Z, r1
    1c34:	0a e8       	ldi	r16, 0x8A	; 138
    1c36:	10 e0       	ldi	r17, 0x00	; 0
    1c38:	69 81       	ldd	r22, Y+1	; 0x01
    1c3a:	7a 81       	ldd	r23, Y+2	; 0x02
    1c3c:	8b 81       	ldd	r24, Y+3	; 0x03
    1c3e:	9c 81       	ldd	r25, Y+4	; 0x04
    1c40:	0e 94 7e 20 	call	0x40fc	; 0x40fc <__fixunssfsi>
    1c44:	dc 01       	movw	r26, r24
    1c46:	cb 01       	movw	r24, r22
    1c48:	f8 01       	movw	r30, r16
    1c4a:	80 83       	st	Z, r24
    1c4c:	0f 90       	pop	r0
    1c4e:	0f 90       	pop	r0
    1c50:	0f 90       	pop	r0
    1c52:	0f 90       	pop	r0
    1c54:	0f 90       	pop	r0
    1c56:	df 91       	pop	r29
    1c58:	cf 91       	pop	r28
    1c5a:	1f 91       	pop	r17
    1c5c:	0f 91       	pop	r16
    1c5e:	08 95       	ret

00001c60 <down_pick_up>:
    1c60:	cf 93       	push	r28
    1c62:	df 93       	push	r29
    1c64:	cd b7       	in	r28, 0x3d	; 61
    1c66:	de b7       	in	r29, 0x3e	; 62
    1c68:	6c 97       	sbiw	r28, 0x1c	; 28
    1c6a:	0f b6       	in	r0, 0x3f	; 63
    1c6c:	f8 94       	cli
    1c6e:	de bf       	out	0x3e, r29	; 62
    1c70:	0f be       	out	0x3f, r0	; 63
    1c72:	cd bf       	out	0x3d, r28	; 61
    1c74:	80 e0       	ldi	r24, 0x00	; 0
    1c76:	5e df       	rcall	.-324    	; 0x1b34 <servo_1>
    1c78:	80 e0       	ldi	r24, 0x00	; 0
    1c7a:	90 e8       	ldi	r25, 0x80	; 128
    1c7c:	a2 ea       	ldi	r26, 0xA2	; 162
    1c7e:	b4 e4       	ldi	r27, 0x44	; 68
    1c80:	89 83       	std	Y+1, r24	; 0x01
    1c82:	9a 83       	std	Y+2, r25	; 0x02
    1c84:	ab 83       	std	Y+3, r26	; 0x03
    1c86:	bc 83       	std	Y+4, r27	; 0x04
    1c88:	26 e6       	ldi	r18, 0x66	; 102
    1c8a:	36 e6       	ldi	r19, 0x66	; 102
    1c8c:	46 e6       	ldi	r20, 0x66	; 102
    1c8e:	55 e4       	ldi	r21, 0x45	; 69
    1c90:	69 81       	ldd	r22, Y+1	; 0x01
    1c92:	7a 81       	ldd	r23, Y+2	; 0x02
    1c94:	8b 81       	ldd	r24, Y+3	; 0x03
    1c96:	9c 81       	ldd	r25, Y+4	; 0x04
    1c98:	0e 94 60 21 	call	0x42c0	; 0x42c0 <__mulsf3>
    1c9c:	dc 01       	movw	r26, r24
    1c9e:	cb 01       	movw	r24, r22
    1ca0:	8d 83       	std	Y+5, r24	; 0x05
    1ca2:	9e 83       	std	Y+6, r25	; 0x06
    1ca4:	af 83       	std	Y+7, r26	; 0x07
    1ca6:	b8 87       	std	Y+8, r27	; 0x08
    1ca8:	20 e0       	ldi	r18, 0x00	; 0
    1caa:	30 e0       	ldi	r19, 0x00	; 0
    1cac:	40 e8       	ldi	r20, 0x80	; 128
    1cae:	5f e3       	ldi	r21, 0x3F	; 63
    1cb0:	6d 81       	ldd	r22, Y+5	; 0x05
    1cb2:	7e 81       	ldd	r23, Y+6	; 0x06
    1cb4:	8f 81       	ldd	r24, Y+7	; 0x07
    1cb6:	98 85       	ldd	r25, Y+8	; 0x08
    1cb8:	0e 94 0d 20 	call	0x401a	; 0x401a <__cmpsf2>
    1cbc:	88 23       	and	r24, r24
    1cbe:	2c f4       	brge	.+10     	; 0x1cca <down_pick_up+0x6a>
    1cc0:	81 e0       	ldi	r24, 0x01	; 1
    1cc2:	90 e0       	ldi	r25, 0x00	; 0
    1cc4:	9a 87       	std	Y+10, r25	; 0x0a
    1cc6:	89 87       	std	Y+9, r24	; 0x09
    1cc8:	3f c0       	rjmp	.+126    	; 0x1d48 <down_pick_up+0xe8>
    1cca:	20 e0       	ldi	r18, 0x00	; 0
    1ccc:	3f ef       	ldi	r19, 0xFF	; 255
    1cce:	4f e7       	ldi	r20, 0x7F	; 127
    1cd0:	57 e4       	ldi	r21, 0x47	; 71
    1cd2:	6d 81       	ldd	r22, Y+5	; 0x05
    1cd4:	7e 81       	ldd	r23, Y+6	; 0x06
    1cd6:	8f 81       	ldd	r24, Y+7	; 0x07
    1cd8:	98 85       	ldd	r25, Y+8	; 0x08
    1cda:	0e 94 5c 21 	call	0x42b8	; 0x42b8 <__gesf2>
    1cde:	18 16       	cp	r1, r24
    1ce0:	4c f5       	brge	.+82     	; 0x1d34 <down_pick_up+0xd4>
    1ce2:	20 e0       	ldi	r18, 0x00	; 0
    1ce4:	30 e0       	ldi	r19, 0x00	; 0
    1ce6:	40 e2       	ldi	r20, 0x20	; 32
    1ce8:	51 e4       	ldi	r21, 0x41	; 65
    1cea:	69 81       	ldd	r22, Y+1	; 0x01
    1cec:	7a 81       	ldd	r23, Y+2	; 0x02
    1cee:	8b 81       	ldd	r24, Y+3	; 0x03
    1cf0:	9c 81       	ldd	r25, Y+4	; 0x04
    1cf2:	0e 94 60 21 	call	0x42c0	; 0x42c0 <__mulsf3>
    1cf6:	dc 01       	movw	r26, r24
    1cf8:	cb 01       	movw	r24, r22
    1cfa:	bc 01       	movw	r22, r24
    1cfc:	cd 01       	movw	r24, r26
    1cfe:	0e 94 7e 20 	call	0x40fc	; 0x40fc <__fixunssfsi>
    1d02:	dc 01       	movw	r26, r24
    1d04:	cb 01       	movw	r24, r22
    1d06:	9a 87       	std	Y+10, r25	; 0x0a
    1d08:	89 87       	std	Y+9, r24	; 0x09
    1d0a:	0f c0       	rjmp	.+30     	; 0x1d2a <down_pick_up+0xca>
    1d0c:	80 e7       	ldi	r24, 0x70	; 112
    1d0e:	91 e0       	ldi	r25, 0x01	; 1
    1d10:	9c 87       	std	Y+12, r25	; 0x0c
    1d12:	8b 87       	std	Y+11, r24	; 0x0b
    1d14:	8b 85       	ldd	r24, Y+11	; 0x0b
    1d16:	9c 85       	ldd	r25, Y+12	; 0x0c
    1d18:	01 97       	sbiw	r24, 0x01	; 1
    1d1a:	f1 f7       	brne	.-4      	; 0x1d18 <down_pick_up+0xb8>
    1d1c:	9c 87       	std	Y+12, r25	; 0x0c
    1d1e:	8b 87       	std	Y+11, r24	; 0x0b
    1d20:	89 85       	ldd	r24, Y+9	; 0x09
    1d22:	9a 85       	ldd	r25, Y+10	; 0x0a
    1d24:	01 97       	sbiw	r24, 0x01	; 1
    1d26:	9a 87       	std	Y+10, r25	; 0x0a
    1d28:	89 87       	std	Y+9, r24	; 0x09
    1d2a:	89 85       	ldd	r24, Y+9	; 0x09
    1d2c:	9a 85       	ldd	r25, Y+10	; 0x0a
    1d2e:	00 97       	sbiw	r24, 0x00	; 0
    1d30:	69 f7       	brne	.-38     	; 0x1d0c <down_pick_up+0xac>
    1d32:	14 c0       	rjmp	.+40     	; 0x1d5c <down_pick_up+0xfc>
    1d34:	6d 81       	ldd	r22, Y+5	; 0x05
    1d36:	7e 81       	ldd	r23, Y+6	; 0x06
    1d38:	8f 81       	ldd	r24, Y+7	; 0x07
    1d3a:	98 85       	ldd	r25, Y+8	; 0x08
    1d3c:	0e 94 7e 20 	call	0x40fc	; 0x40fc <__fixunssfsi>
    1d40:	dc 01       	movw	r26, r24
    1d42:	cb 01       	movw	r24, r22
    1d44:	9a 87       	std	Y+10, r25	; 0x0a
    1d46:	89 87       	std	Y+9, r24	; 0x09
    1d48:	89 85       	ldd	r24, Y+9	; 0x09
    1d4a:	9a 85       	ldd	r25, Y+10	; 0x0a
    1d4c:	9e 87       	std	Y+14, r25	; 0x0e
    1d4e:	8d 87       	std	Y+13, r24	; 0x0d
    1d50:	8d 85       	ldd	r24, Y+13	; 0x0d
    1d52:	9e 85       	ldd	r25, Y+14	; 0x0e
    1d54:	01 97       	sbiw	r24, 0x01	; 1
    1d56:	f1 f7       	brne	.-4      	; 0x1d54 <down_pick_up+0xf4>
    1d58:	9e 87       	std	Y+14, r25	; 0x0e
    1d5a:	8d 87       	std	Y+13, r24	; 0x0d
    1d5c:	80 e5       	ldi	r24, 0x50	; 80
    1d5e:	35 df       	rcall	.-406    	; 0x1bca <servo_2>
    1d60:	80 e0       	ldi	r24, 0x00	; 0
    1d62:	90 e8       	ldi	r25, 0x80	; 128
    1d64:	a2 ea       	ldi	r26, 0xA2	; 162
    1d66:	b4 e4       	ldi	r27, 0x44	; 68
    1d68:	8f 87       	std	Y+15, r24	; 0x0f
    1d6a:	98 8b       	std	Y+16, r25	; 0x10
    1d6c:	a9 8b       	std	Y+17, r26	; 0x11
    1d6e:	ba 8b       	std	Y+18, r27	; 0x12
    1d70:	26 e6       	ldi	r18, 0x66	; 102
    1d72:	36 e6       	ldi	r19, 0x66	; 102
    1d74:	46 e6       	ldi	r20, 0x66	; 102
    1d76:	55 e4       	ldi	r21, 0x45	; 69
    1d78:	6f 85       	ldd	r22, Y+15	; 0x0f
    1d7a:	78 89       	ldd	r23, Y+16	; 0x10
    1d7c:	89 89       	ldd	r24, Y+17	; 0x11
    1d7e:	9a 89       	ldd	r25, Y+18	; 0x12
    1d80:	0e 94 60 21 	call	0x42c0	; 0x42c0 <__mulsf3>
    1d84:	dc 01       	movw	r26, r24
    1d86:	cb 01       	movw	r24, r22
    1d88:	8b 8b       	std	Y+19, r24	; 0x13
    1d8a:	9c 8b       	std	Y+20, r25	; 0x14
    1d8c:	ad 8b       	std	Y+21, r26	; 0x15
    1d8e:	be 8b       	std	Y+22, r27	; 0x16
    1d90:	20 e0       	ldi	r18, 0x00	; 0
    1d92:	30 e0       	ldi	r19, 0x00	; 0
    1d94:	40 e8       	ldi	r20, 0x80	; 128
    1d96:	5f e3       	ldi	r21, 0x3F	; 63
    1d98:	6b 89       	ldd	r22, Y+19	; 0x13
    1d9a:	7c 89       	ldd	r23, Y+20	; 0x14
    1d9c:	8d 89       	ldd	r24, Y+21	; 0x15
    1d9e:	9e 89       	ldd	r25, Y+22	; 0x16
    1da0:	0e 94 0d 20 	call	0x401a	; 0x401a <__cmpsf2>
    1da4:	88 23       	and	r24, r24
    1da6:	2c f4       	brge	.+10     	; 0x1db2 <down_pick_up+0x152>
    1da8:	81 e0       	ldi	r24, 0x01	; 1
    1daa:	90 e0       	ldi	r25, 0x00	; 0
    1dac:	98 8f       	std	Y+24, r25	; 0x18
    1dae:	8f 8b       	std	Y+23, r24	; 0x17
    1db0:	3f c0       	rjmp	.+126    	; 0x1e30 <down_pick_up+0x1d0>
    1db2:	20 e0       	ldi	r18, 0x00	; 0
    1db4:	3f ef       	ldi	r19, 0xFF	; 255
    1db6:	4f e7       	ldi	r20, 0x7F	; 127
    1db8:	57 e4       	ldi	r21, 0x47	; 71
    1dba:	6b 89       	ldd	r22, Y+19	; 0x13
    1dbc:	7c 89       	ldd	r23, Y+20	; 0x14
    1dbe:	8d 89       	ldd	r24, Y+21	; 0x15
    1dc0:	9e 89       	ldd	r25, Y+22	; 0x16
    1dc2:	0e 94 5c 21 	call	0x42b8	; 0x42b8 <__gesf2>
    1dc6:	18 16       	cp	r1, r24
    1dc8:	4c f5       	brge	.+82     	; 0x1e1c <down_pick_up+0x1bc>
    1dca:	20 e0       	ldi	r18, 0x00	; 0
    1dcc:	30 e0       	ldi	r19, 0x00	; 0
    1dce:	40 e2       	ldi	r20, 0x20	; 32
    1dd0:	51 e4       	ldi	r21, 0x41	; 65
    1dd2:	6f 85       	ldd	r22, Y+15	; 0x0f
    1dd4:	78 89       	ldd	r23, Y+16	; 0x10
    1dd6:	89 89       	ldd	r24, Y+17	; 0x11
    1dd8:	9a 89       	ldd	r25, Y+18	; 0x12
    1dda:	0e 94 60 21 	call	0x42c0	; 0x42c0 <__mulsf3>
    1dde:	dc 01       	movw	r26, r24
    1de0:	cb 01       	movw	r24, r22
    1de2:	bc 01       	movw	r22, r24
    1de4:	cd 01       	movw	r24, r26
    1de6:	0e 94 7e 20 	call	0x40fc	; 0x40fc <__fixunssfsi>
    1dea:	dc 01       	movw	r26, r24
    1dec:	cb 01       	movw	r24, r22
    1dee:	98 8f       	std	Y+24, r25	; 0x18
    1df0:	8f 8b       	std	Y+23, r24	; 0x17
    1df2:	0f c0       	rjmp	.+30     	; 0x1e12 <down_pick_up+0x1b2>
    1df4:	80 e7       	ldi	r24, 0x70	; 112
    1df6:	91 e0       	ldi	r25, 0x01	; 1
    1df8:	9a 8f       	std	Y+26, r25	; 0x1a
    1dfa:	89 8f       	std	Y+25, r24	; 0x19
    1dfc:	89 8d       	ldd	r24, Y+25	; 0x19
    1dfe:	9a 8d       	ldd	r25, Y+26	; 0x1a
    1e00:	01 97       	sbiw	r24, 0x01	; 1
    1e02:	f1 f7       	brne	.-4      	; 0x1e00 <down_pick_up+0x1a0>
    1e04:	9a 8f       	std	Y+26, r25	; 0x1a
    1e06:	89 8f       	std	Y+25, r24	; 0x19
    1e08:	8f 89       	ldd	r24, Y+23	; 0x17
    1e0a:	98 8d       	ldd	r25, Y+24	; 0x18
    1e0c:	01 97       	sbiw	r24, 0x01	; 1
    1e0e:	98 8f       	std	Y+24, r25	; 0x18
    1e10:	8f 8b       	std	Y+23, r24	; 0x17
    1e12:	8f 89       	ldd	r24, Y+23	; 0x17
    1e14:	98 8d       	ldd	r25, Y+24	; 0x18
    1e16:	00 97       	sbiw	r24, 0x00	; 0
    1e18:	69 f7       	brne	.-38     	; 0x1df4 <down_pick_up+0x194>
    1e1a:	14 c0       	rjmp	.+40     	; 0x1e44 <down_pick_up+0x1e4>
    1e1c:	6b 89       	ldd	r22, Y+19	; 0x13
    1e1e:	7c 89       	ldd	r23, Y+20	; 0x14
    1e20:	8d 89       	ldd	r24, Y+21	; 0x15
    1e22:	9e 89       	ldd	r25, Y+22	; 0x16
    1e24:	0e 94 7e 20 	call	0x40fc	; 0x40fc <__fixunssfsi>
    1e28:	dc 01       	movw	r26, r24
    1e2a:	cb 01       	movw	r24, r22
    1e2c:	98 8f       	std	Y+24, r25	; 0x18
    1e2e:	8f 8b       	std	Y+23, r24	; 0x17
    1e30:	8f 89       	ldd	r24, Y+23	; 0x17
    1e32:	98 8d       	ldd	r25, Y+24	; 0x18
    1e34:	9c 8f       	std	Y+28, r25	; 0x1c
    1e36:	8b 8f       	std	Y+27, r24	; 0x1b
    1e38:	8b 8d       	ldd	r24, Y+27	; 0x1b
    1e3a:	9c 8d       	ldd	r25, Y+28	; 0x1c
    1e3c:	01 97       	sbiw	r24, 0x01	; 1
    1e3e:	f1 f7       	brne	.-4      	; 0x1e3c <down_pick_up+0x1dc>
    1e40:	9c 8f       	std	Y+28, r25	; 0x1c
    1e42:	8b 8f       	std	Y+27, r24	; 0x1b
    1e44:	8a e5       	ldi	r24, 0x5A	; 90
    1e46:	76 de       	rcall	.-788    	; 0x1b34 <servo_1>
    1e48:	6c 96       	adiw	r28, 0x1c	; 28
    1e4a:	0f b6       	in	r0, 0x3f	; 63
    1e4c:	f8 94       	cli
    1e4e:	de bf       	out	0x3e, r29	; 62
    1e50:	0f be       	out	0x3f, r0	; 63
    1e52:	cd bf       	out	0x3d, r28	; 61
    1e54:	df 91       	pop	r29
    1e56:	cf 91       	pop	r28
    1e58:	08 95       	ret

00001e5a <motion_pin_config>:
    1e5a:	cf 93       	push	r28
    1e5c:	df 93       	push	r29
    1e5e:	cd b7       	in	r28, 0x3d	; 61
    1e60:	de b7       	in	r29, 0x3e	; 62
    1e62:	81 e2       	ldi	r24, 0x21	; 33
    1e64:	90 e0       	ldi	r25, 0x00	; 0
    1e66:	21 e2       	ldi	r18, 0x21	; 33
    1e68:	30 e0       	ldi	r19, 0x00	; 0
    1e6a:	f9 01       	movw	r30, r18
    1e6c:	20 81       	ld	r18, Z
    1e6e:	2f 60       	ori	r18, 0x0F	; 15
    1e70:	fc 01       	movw	r30, r24
    1e72:	20 83       	st	Z, r18
    1e74:	82 e2       	ldi	r24, 0x22	; 34
    1e76:	90 e0       	ldi	r25, 0x00	; 0
    1e78:	22 e2       	ldi	r18, 0x22	; 34
    1e7a:	30 e0       	ldi	r19, 0x00	; 0
    1e7c:	f9 01       	movw	r30, r18
    1e7e:	20 81       	ld	r18, Z
    1e80:	20 7f       	andi	r18, 0xF0	; 240
    1e82:	fc 01       	movw	r30, r24
    1e84:	20 83       	st	Z, r18
    1e86:	8a e0       	ldi	r24, 0x0A	; 10
    1e88:	91 e0       	ldi	r25, 0x01	; 1
    1e8a:	2a e0       	ldi	r18, 0x0A	; 10
    1e8c:	31 e0       	ldi	r19, 0x01	; 1
    1e8e:	f9 01       	movw	r30, r18
    1e90:	20 81       	ld	r18, Z
    1e92:	28 61       	ori	r18, 0x18	; 24
    1e94:	fc 01       	movw	r30, r24
    1e96:	20 83       	st	Z, r18
    1e98:	8b e0       	ldi	r24, 0x0B	; 11
    1e9a:	91 e0       	ldi	r25, 0x01	; 1
    1e9c:	2b e0       	ldi	r18, 0x0B	; 11
    1e9e:	31 e0       	ldi	r19, 0x01	; 1
    1ea0:	f9 01       	movw	r30, r18
    1ea2:	20 81       	ld	r18, Z
    1ea4:	28 61       	ori	r18, 0x18	; 24
    1ea6:	fc 01       	movw	r30, r24
    1ea8:	20 83       	st	Z, r18
    1eaa:	df 91       	pop	r29
    1eac:	cf 91       	pop	r28
    1eae:	08 95       	ret

00001eb0 <left_encoder_pin_config>:
    1eb0:	cf 93       	push	r28
    1eb2:	df 93       	push	r29
    1eb4:	cd b7       	in	r28, 0x3d	; 61
    1eb6:	de b7       	in	r29, 0x3e	; 62
    1eb8:	8d e2       	ldi	r24, 0x2D	; 45
    1eba:	90 e0       	ldi	r25, 0x00	; 0
    1ebc:	2d e2       	ldi	r18, 0x2D	; 45
    1ebe:	30 e0       	ldi	r19, 0x00	; 0
    1ec0:	f9 01       	movw	r30, r18
    1ec2:	20 81       	ld	r18, Z
    1ec4:	2f 7e       	andi	r18, 0xEF	; 239
    1ec6:	fc 01       	movw	r30, r24
    1ec8:	20 83       	st	Z, r18
    1eca:	8e e2       	ldi	r24, 0x2E	; 46
    1ecc:	90 e0       	ldi	r25, 0x00	; 0
    1ece:	2e e2       	ldi	r18, 0x2E	; 46
    1ed0:	30 e0       	ldi	r19, 0x00	; 0
    1ed2:	f9 01       	movw	r30, r18
    1ed4:	20 81       	ld	r18, Z
    1ed6:	20 61       	ori	r18, 0x10	; 16
    1ed8:	fc 01       	movw	r30, r24
    1eda:	20 83       	st	Z, r18
    1edc:	df 91       	pop	r29
    1ede:	cf 91       	pop	r28
    1ee0:	08 95       	ret

00001ee2 <right_encoder_pin_config>:
    1ee2:	cf 93       	push	r28
    1ee4:	df 93       	push	r29
    1ee6:	cd b7       	in	r28, 0x3d	; 61
    1ee8:	de b7       	in	r29, 0x3e	; 62
    1eea:	8d e2       	ldi	r24, 0x2D	; 45
    1eec:	90 e0       	ldi	r25, 0x00	; 0
    1eee:	2d e2       	ldi	r18, 0x2D	; 45
    1ef0:	30 e0       	ldi	r19, 0x00	; 0
    1ef2:	f9 01       	movw	r30, r18
    1ef4:	20 81       	ld	r18, Z
    1ef6:	2f 7d       	andi	r18, 0xDF	; 223
    1ef8:	fc 01       	movw	r30, r24
    1efa:	20 83       	st	Z, r18
    1efc:	8e e2       	ldi	r24, 0x2E	; 46
    1efe:	90 e0       	ldi	r25, 0x00	; 0
    1f00:	2e e2       	ldi	r18, 0x2E	; 46
    1f02:	30 e0       	ldi	r19, 0x00	; 0
    1f04:	f9 01       	movw	r30, r18
    1f06:	20 81       	ld	r18, Z
    1f08:	20 62       	ori	r18, 0x20	; 32
    1f0a:	fc 01       	movw	r30, r24
    1f0c:	20 83       	st	Z, r18
    1f0e:	df 91       	pop	r29
    1f10:	cf 91       	pop	r28
    1f12:	08 95       	ret

00001f14 <left_position_encoder_interrupt_init>:
    1f14:	cf 93       	push	r28
    1f16:	df 93       	push	r29
    1f18:	cd b7       	in	r28, 0x3d	; 61
    1f1a:	de b7       	in	r29, 0x3e	; 62
    1f1c:	f8 94       	cli
    1f1e:	8a e6       	ldi	r24, 0x6A	; 106
    1f20:	90 e0       	ldi	r25, 0x00	; 0
    1f22:	2a e6       	ldi	r18, 0x6A	; 106
    1f24:	30 e0       	ldi	r19, 0x00	; 0
    1f26:	f9 01       	movw	r30, r18
    1f28:	20 81       	ld	r18, Z
    1f2a:	22 60       	ori	r18, 0x02	; 2
    1f2c:	fc 01       	movw	r30, r24
    1f2e:	20 83       	st	Z, r18
    1f30:	8d e3       	ldi	r24, 0x3D	; 61
    1f32:	90 e0       	ldi	r25, 0x00	; 0
    1f34:	2d e3       	ldi	r18, 0x3D	; 61
    1f36:	30 e0       	ldi	r19, 0x00	; 0
    1f38:	f9 01       	movw	r30, r18
    1f3a:	20 81       	ld	r18, Z
    1f3c:	20 61       	ori	r18, 0x10	; 16
    1f3e:	fc 01       	movw	r30, r24
    1f40:	20 83       	st	Z, r18
    1f42:	78 94       	sei
    1f44:	df 91       	pop	r29
    1f46:	cf 91       	pop	r28
    1f48:	08 95       	ret

00001f4a <right_position_encoder_interrupt_init>:
    1f4a:	cf 93       	push	r28
    1f4c:	df 93       	push	r29
    1f4e:	cd b7       	in	r28, 0x3d	; 61
    1f50:	de b7       	in	r29, 0x3e	; 62
    1f52:	f8 94       	cli
    1f54:	8a e6       	ldi	r24, 0x6A	; 106
    1f56:	90 e0       	ldi	r25, 0x00	; 0
    1f58:	2a e6       	ldi	r18, 0x6A	; 106
    1f5a:	30 e0       	ldi	r19, 0x00	; 0
    1f5c:	f9 01       	movw	r30, r18
    1f5e:	20 81       	ld	r18, Z
    1f60:	28 60       	ori	r18, 0x08	; 8
    1f62:	fc 01       	movw	r30, r24
    1f64:	20 83       	st	Z, r18
    1f66:	8d e3       	ldi	r24, 0x3D	; 61
    1f68:	90 e0       	ldi	r25, 0x00	; 0
    1f6a:	2d e3       	ldi	r18, 0x3D	; 61
    1f6c:	30 e0       	ldi	r19, 0x00	; 0
    1f6e:	f9 01       	movw	r30, r18
    1f70:	20 81       	ld	r18, Z
    1f72:	20 62       	ori	r18, 0x20	; 32
    1f74:	fc 01       	movw	r30, r24
    1f76:	20 83       	st	Z, r18
    1f78:	78 94       	sei
    1f7a:	df 91       	pop	r29
    1f7c:	cf 91       	pop	r28
    1f7e:	08 95       	ret

00001f80 <__vector_6>:
    1f80:	1f 92       	push	r1
    1f82:	0f 92       	push	r0
    1f84:	00 90 5f 00 	lds	r0, 0x005F
    1f88:	0f 92       	push	r0
    1f8a:	11 24       	eor	r1, r1
    1f8c:	8f 93       	push	r24
    1f8e:	9f 93       	push	r25
    1f90:	af 93       	push	r26
    1f92:	bf 93       	push	r27
    1f94:	cf 93       	push	r28
    1f96:	df 93       	push	r29
    1f98:	cd b7       	in	r28, 0x3d	; 61
    1f9a:	de b7       	in	r29, 0x3e	; 62
    1f9c:	80 91 18 02 	lds	r24, 0x0218
    1fa0:	90 91 19 02 	lds	r25, 0x0219
    1fa4:	a0 91 1a 02 	lds	r26, 0x021A
    1fa8:	b0 91 1b 02 	lds	r27, 0x021B
    1fac:	01 96       	adiw	r24, 0x01	; 1
    1fae:	a1 1d       	adc	r26, r1
    1fb0:	b1 1d       	adc	r27, r1
    1fb2:	80 93 18 02 	sts	0x0218, r24
    1fb6:	90 93 19 02 	sts	0x0219, r25
    1fba:	a0 93 1a 02 	sts	0x021A, r26
    1fbe:	b0 93 1b 02 	sts	0x021B, r27
    1fc2:	df 91       	pop	r29
    1fc4:	cf 91       	pop	r28
    1fc6:	bf 91       	pop	r27
    1fc8:	af 91       	pop	r26
    1fca:	9f 91       	pop	r25
    1fcc:	8f 91       	pop	r24
    1fce:	0f 90       	pop	r0
    1fd0:	00 92 5f 00 	sts	0x005F, r0
    1fd4:	0f 90       	pop	r0
    1fd6:	1f 90       	pop	r1
    1fd8:	18 95       	reti

00001fda <__vector_5>:
    1fda:	1f 92       	push	r1
    1fdc:	0f 92       	push	r0
    1fde:	00 90 5f 00 	lds	r0, 0x005F
    1fe2:	0f 92       	push	r0
    1fe4:	11 24       	eor	r1, r1
    1fe6:	8f 93       	push	r24
    1fe8:	9f 93       	push	r25
    1fea:	af 93       	push	r26
    1fec:	bf 93       	push	r27
    1fee:	cf 93       	push	r28
    1ff0:	df 93       	push	r29
    1ff2:	cd b7       	in	r28, 0x3d	; 61
    1ff4:	de b7       	in	r29, 0x3e	; 62
    1ff6:	80 91 14 02 	lds	r24, 0x0214
    1ffa:	90 91 15 02 	lds	r25, 0x0215
    1ffe:	a0 91 16 02 	lds	r26, 0x0216
    2002:	b0 91 17 02 	lds	r27, 0x0217
    2006:	01 96       	adiw	r24, 0x01	; 1
    2008:	a1 1d       	adc	r26, r1
    200a:	b1 1d       	adc	r27, r1
    200c:	80 93 14 02 	sts	0x0214, r24
    2010:	90 93 15 02 	sts	0x0215, r25
    2014:	a0 93 16 02 	sts	0x0216, r26
    2018:	b0 93 17 02 	sts	0x0217, r27
    201c:	df 91       	pop	r29
    201e:	cf 91       	pop	r28
    2020:	bf 91       	pop	r27
    2022:	af 91       	pop	r26
    2024:	9f 91       	pop	r25
    2026:	8f 91       	pop	r24
    2028:	0f 90       	pop	r0
    202a:	00 92 5f 00 	sts	0x005F, r0
    202e:	0f 90       	pop	r0
    2030:	1f 90       	pop	r1
    2032:	18 95       	reti

00002034 <motion_set>:
    2034:	cf 93       	push	r28
    2036:	df 93       	push	r29
    2038:	1f 92       	push	r1
    203a:	1f 92       	push	r1
    203c:	cd b7       	in	r28, 0x3d	; 61
    203e:	de b7       	in	r29, 0x3e	; 62
    2040:	8a 83       	std	Y+2, r24	; 0x02
    2042:	19 82       	std	Y+1, r1	; 0x01
    2044:	8a 81       	ldd	r24, Y+2	; 0x02
    2046:	8f 70       	andi	r24, 0x0F	; 15
    2048:	8a 83       	std	Y+2, r24	; 0x02
    204a:	82 e2       	ldi	r24, 0x22	; 34
    204c:	90 e0       	ldi	r25, 0x00	; 0
    204e:	fc 01       	movw	r30, r24
    2050:	80 81       	ld	r24, Z
    2052:	89 83       	std	Y+1, r24	; 0x01
    2054:	89 81       	ldd	r24, Y+1	; 0x01
    2056:	80 7f       	andi	r24, 0xF0	; 240
    2058:	89 83       	std	Y+1, r24	; 0x01
    205a:	99 81       	ldd	r25, Y+1	; 0x01
    205c:	8a 81       	ldd	r24, Y+2	; 0x02
    205e:	89 2b       	or	r24, r25
    2060:	89 83       	std	Y+1, r24	; 0x01
    2062:	82 e2       	ldi	r24, 0x22	; 34
    2064:	90 e0       	ldi	r25, 0x00	; 0
    2066:	29 81       	ldd	r18, Y+1	; 0x01
    2068:	fc 01       	movw	r30, r24
    206a:	20 83       	st	Z, r18
    206c:	0f 90       	pop	r0
    206e:	0f 90       	pop	r0
    2070:	df 91       	pop	r29
    2072:	cf 91       	pop	r28
    2074:	08 95       	ret

00002076 <forward>:
    2076:	cf 93       	push	r28
    2078:	df 93       	push	r29
    207a:	cd b7       	in	r28, 0x3d	; 61
    207c:	de b7       	in	r29, 0x3e	; 62
    207e:	86 e0       	ldi	r24, 0x06	; 6
    2080:	d9 df       	rcall	.-78     	; 0x2034 <motion_set>
    2082:	df 91       	pop	r29
    2084:	cf 91       	pop	r28
    2086:	08 95       	ret

00002088 <back>:
    2088:	cf 93       	push	r28
    208a:	df 93       	push	r29
    208c:	cd b7       	in	r28, 0x3d	; 61
    208e:	de b7       	in	r29, 0x3e	; 62
    2090:	89 e0       	ldi	r24, 0x09	; 9
    2092:	d0 df       	rcall	.-96     	; 0x2034 <motion_set>
    2094:	df 91       	pop	r29
    2096:	cf 91       	pop	r28
    2098:	08 95       	ret

0000209a <left>:
    209a:	cf 93       	push	r28
    209c:	df 93       	push	r29
    209e:	cd b7       	in	r28, 0x3d	; 61
    20a0:	de b7       	in	r29, 0x3e	; 62
    20a2:	85 e0       	ldi	r24, 0x05	; 5
    20a4:	c7 df       	rcall	.-114    	; 0x2034 <motion_set>
    20a6:	df 91       	pop	r29
    20a8:	cf 91       	pop	r28
    20aa:	08 95       	ret

000020ac <right>:
    20ac:	cf 93       	push	r28
    20ae:	df 93       	push	r29
    20b0:	cd b7       	in	r28, 0x3d	; 61
    20b2:	de b7       	in	r29, 0x3e	; 62
    20b4:	8a e0       	ldi	r24, 0x0A	; 10
    20b6:	be df       	rcall	.-132    	; 0x2034 <motion_set>
    20b8:	df 91       	pop	r29
    20ba:	cf 91       	pop	r28
    20bc:	08 95       	ret

000020be <stop>:
    20be:	cf 93       	push	r28
    20c0:	df 93       	push	r29
    20c2:	cd b7       	in	r28, 0x3d	; 61
    20c4:	de b7       	in	r29, 0x3e	; 62
    20c6:	80 e0       	ldi	r24, 0x00	; 0
    20c8:	b5 df       	rcall	.-150    	; 0x2034 <motion_set>
    20ca:	df 91       	pop	r29
    20cc:	cf 91       	pop	r28
    20ce:	08 95       	ret

000020d0 <angle_rotate>:
    20d0:	cf 93       	push	r28
    20d2:	df 93       	push	r29
    20d4:	cd b7       	in	r28, 0x3d	; 61
    20d6:	de b7       	in	r29, 0x3e	; 62
    20d8:	2a 97       	sbiw	r28, 0x0a	; 10
    20da:	0f b6       	in	r0, 0x3f	; 63
    20dc:	f8 94       	cli
    20de:	de bf       	out	0x3e, r29	; 62
    20e0:	0f be       	out	0x3f, r0	; 63
    20e2:	cd bf       	out	0x3d, r28	; 61
    20e4:	9a 87       	std	Y+10, r25	; 0x0a
    20e6:	89 87       	std	Y+9, r24	; 0x09
    20e8:	19 82       	std	Y+1, r1	; 0x01
    20ea:	1a 82       	std	Y+2, r1	; 0x02
    20ec:	1b 82       	std	Y+3, r1	; 0x03
    20ee:	1c 82       	std	Y+4, r1	; 0x04
    20f0:	1d 82       	std	Y+5, r1	; 0x05
    20f2:	1e 82       	std	Y+6, r1	; 0x06
    20f4:	1f 82       	std	Y+7, r1	; 0x07
    20f6:	18 86       	std	Y+8, r1	; 0x08
    20f8:	89 85       	ldd	r24, Y+9	; 0x09
    20fa:	9a 85       	ldd	r25, Y+10	; 0x0a
    20fc:	cc 01       	movw	r24, r24
    20fe:	a0 e0       	ldi	r26, 0x00	; 0
    2100:	b0 e0       	ldi	r27, 0x00	; 0
    2102:	bc 01       	movw	r22, r24
    2104:	cd 01       	movw	r24, r26
    2106:	0e 94 aa 20 	call	0x4154	; 0x4154 <__floatunsisf>
    210a:	dc 01       	movw	r26, r24
    210c:	cb 01       	movw	r24, r22
    210e:	2b ec       	ldi	r18, 0xCB	; 203
    2110:	31 ea       	ldi	r19, 0xA1	; 161
    2112:	45 e4       	ldi	r20, 0x45	; 69
    2114:	5e e3       	ldi	r21, 0x3E	; 62
    2116:	bc 01       	movw	r22, r24
    2118:	cd 01       	movw	r24, r26
    211a:	0e 94 11 20 	call	0x4022	; 0x4022 <__divsf3>
    211e:	dc 01       	movw	r26, r24
    2120:	cb 01       	movw	r24, r22
    2122:	89 83       	std	Y+1, r24	; 0x01
    2124:	9a 83       	std	Y+2, r25	; 0x02
    2126:	ab 83       	std	Y+3, r26	; 0x03
    2128:	bc 83       	std	Y+4, r27	; 0x04
    212a:	69 81       	ldd	r22, Y+1	; 0x01
    212c:	7a 81       	ldd	r23, Y+2	; 0x02
    212e:	8b 81       	ldd	r24, Y+3	; 0x03
    2130:	9c 81       	ldd	r25, Y+4	; 0x04
    2132:	0e 94 7e 20 	call	0x40fc	; 0x40fc <__fixunssfsi>
    2136:	dc 01       	movw	r26, r24
    2138:	cb 01       	movw	r24, r22
    213a:	cc 01       	movw	r24, r24
    213c:	a0 e0       	ldi	r26, 0x00	; 0
    213e:	b0 e0       	ldi	r27, 0x00	; 0
    2140:	8d 83       	std	Y+5, r24	; 0x05
    2142:	9e 83       	std	Y+6, r25	; 0x06
    2144:	af 83       	std	Y+7, r26	; 0x07
    2146:	b8 87       	std	Y+8, r27	; 0x08
    2148:	10 92 18 02 	sts	0x0218, r1
    214c:	10 92 19 02 	sts	0x0219, r1
    2150:	10 92 1a 02 	sts	0x021A, r1
    2154:	10 92 1b 02 	sts	0x021B, r1
    2158:	10 92 14 02 	sts	0x0214, r1
    215c:	10 92 15 02 	sts	0x0215, r1
    2160:	10 92 16 02 	sts	0x0216, r1
    2164:	10 92 17 02 	sts	0x0217, r1
    2168:	20 91 18 02 	lds	r18, 0x0218
    216c:	30 91 19 02 	lds	r19, 0x0219
    2170:	40 91 1a 02 	lds	r20, 0x021A
    2174:	50 91 1b 02 	lds	r21, 0x021B
    2178:	71 e0       	ldi	r23, 0x01	; 1
    217a:	8d 81       	ldd	r24, Y+5	; 0x05
    217c:	9e 81       	ldd	r25, Y+6	; 0x06
    217e:	af 81       	ldd	r26, Y+7	; 0x07
    2180:	b8 85       	ldd	r27, Y+8	; 0x08
    2182:	28 17       	cp	r18, r24
    2184:	39 07       	cpc	r19, r25
    2186:	4a 07       	cpc	r20, r26
    2188:	5b 07       	cpc	r21, r27
    218a:	08 f4       	brcc	.+2      	; 0x218e <angle_rotate+0xbe>
    218c:	70 e0       	ldi	r23, 0x00	; 0
    218e:	20 91 14 02 	lds	r18, 0x0214
    2192:	30 91 15 02 	lds	r19, 0x0215
    2196:	40 91 16 02 	lds	r20, 0x0216
    219a:	50 91 17 02 	lds	r21, 0x0217
    219e:	61 e0       	ldi	r22, 0x01	; 1
    21a0:	8d 81       	ldd	r24, Y+5	; 0x05
    21a2:	9e 81       	ldd	r25, Y+6	; 0x06
    21a4:	af 81       	ldd	r26, Y+7	; 0x07
    21a6:	b8 85       	ldd	r27, Y+8	; 0x08
    21a8:	28 17       	cp	r18, r24
    21aa:	39 07       	cpc	r19, r25
    21ac:	4a 07       	cpc	r20, r26
    21ae:	5b 07       	cpc	r21, r27
    21b0:	08 f4       	brcc	.+2      	; 0x21b4 <angle_rotate+0xe4>
    21b2:	60 e0       	ldi	r22, 0x00	; 0
    21b4:	87 2f       	mov	r24, r23
    21b6:	86 2b       	or	r24, r22
    21b8:	88 23       	and	r24, r24
    21ba:	09 f0       	breq	.+2      	; 0x21be <angle_rotate+0xee>
    21bc:	01 c0       	rjmp	.+2      	; 0x21c0 <angle_rotate+0xf0>
    21be:	d4 cf       	rjmp	.-88     	; 0x2168 <angle_rotate+0x98>
    21c0:	7e df       	rcall	.-260    	; 0x20be <stop>
    21c2:	2a 96       	adiw	r28, 0x0a	; 10
    21c4:	0f b6       	in	r0, 0x3f	; 63
    21c6:	f8 94       	cli
    21c8:	de bf       	out	0x3e, r29	; 62
    21ca:	0f be       	out	0x3f, r0	; 63
    21cc:	cd bf       	out	0x3d, r28	; 61
    21ce:	df 91       	pop	r29
    21d0:	cf 91       	pop	r28
    21d2:	08 95       	ret

000021d4 <linear_distance_mm>:
    21d4:	cf 93       	push	r28
    21d6:	df 93       	push	r29
    21d8:	cd b7       	in	r28, 0x3d	; 61
    21da:	de b7       	in	r29, 0x3e	; 62
    21dc:	2a 97       	sbiw	r28, 0x0a	; 10
    21de:	0f b6       	in	r0, 0x3f	; 63
    21e0:	f8 94       	cli
    21e2:	de bf       	out	0x3e, r29	; 62
    21e4:	0f be       	out	0x3f, r0	; 63
    21e6:	cd bf       	out	0x3d, r28	; 61
    21e8:	9a 87       	std	Y+10, r25	; 0x0a
    21ea:	89 87       	std	Y+9, r24	; 0x09
    21ec:	19 82       	std	Y+1, r1	; 0x01
    21ee:	1a 82       	std	Y+2, r1	; 0x02
    21f0:	1b 82       	std	Y+3, r1	; 0x03
    21f2:	1c 82       	std	Y+4, r1	; 0x04
    21f4:	1d 82       	std	Y+5, r1	; 0x05
    21f6:	1e 82       	std	Y+6, r1	; 0x06
    21f8:	1f 82       	std	Y+7, r1	; 0x07
    21fa:	18 86       	std	Y+8, r1	; 0x08
    21fc:	89 85       	ldd	r24, Y+9	; 0x09
    21fe:	9a 85       	ldd	r25, Y+10	; 0x0a
    2200:	cc 01       	movw	r24, r24
    2202:	a0 e0       	ldi	r26, 0x00	; 0
    2204:	b0 e0       	ldi	r27, 0x00	; 0
    2206:	bc 01       	movw	r22, r24
    2208:	cd 01       	movw	r24, r26
    220a:	0e 94 aa 20 	call	0x4154	; 0x4154 <__floatunsisf>
    220e:	dc 01       	movw	r26, r24
    2210:	cb 01       	movw	r24, r22
    2212:	23 e3       	ldi	r18, 0x33	; 51
    2214:	33 e3       	ldi	r19, 0x33	; 51
    2216:	43 e3       	ldi	r20, 0x33	; 51
    2218:	5e e3       	ldi	r21, 0x3E	; 62
    221a:	bc 01       	movw	r22, r24
    221c:	cd 01       	movw	r24, r26
    221e:	0e 94 11 20 	call	0x4022	; 0x4022 <__divsf3>
    2222:	dc 01       	movw	r26, r24
    2224:	cb 01       	movw	r24, r22
    2226:	89 83       	std	Y+1, r24	; 0x01
    2228:	9a 83       	std	Y+2, r25	; 0x02
    222a:	ab 83       	std	Y+3, r26	; 0x03
    222c:	bc 83       	std	Y+4, r27	; 0x04
    222e:	69 81       	ldd	r22, Y+1	; 0x01
    2230:	7a 81       	ldd	r23, Y+2	; 0x02
    2232:	8b 81       	ldd	r24, Y+3	; 0x03
    2234:	9c 81       	ldd	r25, Y+4	; 0x04
    2236:	0e 94 7e 20 	call	0x40fc	; 0x40fc <__fixunssfsi>
    223a:	dc 01       	movw	r26, r24
    223c:	cb 01       	movw	r24, r22
    223e:	8d 83       	std	Y+5, r24	; 0x05
    2240:	9e 83       	std	Y+6, r25	; 0x06
    2242:	af 83       	std	Y+7, r26	; 0x07
    2244:	b8 87       	std	Y+8, r27	; 0x08
    2246:	10 92 18 02 	sts	0x0218, r1
    224a:	10 92 19 02 	sts	0x0219, r1
    224e:	10 92 1a 02 	sts	0x021A, r1
    2252:	10 92 1b 02 	sts	0x021B, r1
    2256:	20 91 18 02 	lds	r18, 0x0218
    225a:	30 91 19 02 	lds	r19, 0x0219
    225e:	40 91 1a 02 	lds	r20, 0x021A
    2262:	50 91 1b 02 	lds	r21, 0x021B
    2266:	8d 81       	ldd	r24, Y+5	; 0x05
    2268:	9e 81       	ldd	r25, Y+6	; 0x06
    226a:	af 81       	ldd	r26, Y+7	; 0x07
    226c:	b8 85       	ldd	r27, Y+8	; 0x08
    226e:	82 17       	cp	r24, r18
    2270:	93 07       	cpc	r25, r19
    2272:	a4 07       	cpc	r26, r20
    2274:	b5 07       	cpc	r27, r21
    2276:	08 f4       	brcc	.+2      	; 0x227a <__stack+0x7b>
    2278:	01 c0       	rjmp	.+2      	; 0x227c <__stack+0x7d>
    227a:	ed cf       	rjmp	.-38     	; 0x2256 <__stack+0x57>
    227c:	20 df       	rcall	.-448    	; 0x20be <stop>
    227e:	2a 96       	adiw	r28, 0x0a	; 10
    2280:	0f b6       	in	r0, 0x3f	; 63
    2282:	f8 94       	cli
    2284:	de bf       	out	0x3e, r29	; 62
    2286:	0f be       	out	0x3f, r0	; 63
    2288:	cd bf       	out	0x3d, r28	; 61
    228a:	df 91       	pop	r29
    228c:	cf 91       	pop	r28
    228e:	08 95       	ret

00002290 <forward_mm>:
    2290:	cf 93       	push	r28
    2292:	df 93       	push	r29
    2294:	1f 92       	push	r1
    2296:	1f 92       	push	r1
    2298:	cd b7       	in	r28, 0x3d	; 61
    229a:	de b7       	in	r29, 0x3e	; 62
    229c:	9a 83       	std	Y+2, r25	; 0x02
    229e:	89 83       	std	Y+1, r24	; 0x01
    22a0:	ea de       	rcall	.-556    	; 0x2076 <forward>
    22a2:	89 81       	ldd	r24, Y+1	; 0x01
    22a4:	9a 81       	ldd	r25, Y+2	; 0x02
    22a6:	96 df       	rcall	.-212    	; 0x21d4 <linear_distance_mm>
    22a8:	0f 90       	pop	r0
    22aa:	0f 90       	pop	r0
    22ac:	df 91       	pop	r29
    22ae:	cf 91       	pop	r28
    22b0:	08 95       	ret

000022b2 <left_degrees>:
    22b2:	cf 93       	push	r28
    22b4:	df 93       	push	r29
    22b6:	1f 92       	push	r1
    22b8:	1f 92       	push	r1
    22ba:	cd b7       	in	r28, 0x3d	; 61
    22bc:	de b7       	in	r29, 0x3e	; 62
    22be:	9a 83       	std	Y+2, r25	; 0x02
    22c0:	89 83       	std	Y+1, r24	; 0x01
    22c2:	eb de       	rcall	.-554    	; 0x209a <left>
    22c4:	89 81       	ldd	r24, Y+1	; 0x01
    22c6:	9a 81       	ldd	r25, Y+2	; 0x02
    22c8:	03 df       	rcall	.-506    	; 0x20d0 <angle_rotate>
    22ca:	0f 90       	pop	r0
    22cc:	0f 90       	pop	r0
    22ce:	df 91       	pop	r29
    22d0:	cf 91       	pop	r28
    22d2:	08 95       	ret

000022d4 <right_degrees>:
    22d4:	cf 93       	push	r28
    22d6:	df 93       	push	r29
    22d8:	1f 92       	push	r1
    22da:	1f 92       	push	r1
    22dc:	cd b7       	in	r28, 0x3d	; 61
    22de:	de b7       	in	r29, 0x3e	; 62
    22e0:	9a 83       	std	Y+2, r25	; 0x02
    22e2:	89 83       	std	Y+1, r24	; 0x01
    22e4:	e3 de       	rcall	.-570    	; 0x20ac <right>
    22e6:	89 81       	ldd	r24, Y+1	; 0x01
    22e8:	9a 81       	ldd	r25, Y+2	; 0x02
    22ea:	f2 de       	rcall	.-540    	; 0x20d0 <angle_rotate>
    22ec:	0f 90       	pop	r0
    22ee:	0f 90       	pop	r0
    22f0:	df 91       	pop	r29
    22f2:	cf 91       	pop	r28
    22f4:	08 95       	ret

000022f6 <main>:
    22f6:	cf 93       	push	r28
    22f8:	df 93       	push	r29
    22fa:	cd b7       	in	r28, 0x3d	; 61
    22fc:	de b7       	in	r29, 0x3e	; 62
    22fe:	2e 97       	sbiw	r28, 0x0e	; 14
    2300:	0f b6       	in	r0, 0x3f	; 63
    2302:	f8 94       	cli
    2304:	de bf       	out	0x3e, r29	; 62
    2306:	0f be       	out	0x3f, r0	; 63
    2308:	cd bf       	out	0x3d, r28	; 61
    230a:	23 db       	rcall	.-2490   	; 0x1952 <init_devices>
    230c:	09 da       	rcall	.-3054   	; 0x1720 <binit_devices>
    230e:	0e 94 d5 00 	call	0x1aa	; 0x1aa <lcd_set_4bit>
    2312:	05 dc       	rcall	.-2038   	; 0x1b1e <sinit_devices>
    2314:	63 e0       	ldi	r22, 0x03	; 3
    2316:	81 e0       	ldi	r24, 0x01	; 1
    2318:	68 d8       	rcall	.-3888   	; 0x13ea <lcd_cursor>
    231a:	86 e0       	ldi	r24, 0x06	; 6
    231c:	92 e0       	ldi	r25, 0x02	; 2
    231e:	47 d8       	rcall	.-3954   	; 0x13ae <lcd_string>
    2320:	80 e0       	ldi	r24, 0x00	; 0
    2322:	90 e8       	ldi	r25, 0x80	; 128
    2324:	ab e3       	ldi	r26, 0x3B	; 59
    2326:	b5 e4       	ldi	r27, 0x45	; 69
    2328:	89 83       	std	Y+1, r24	; 0x01
    232a:	9a 83       	std	Y+2, r25	; 0x02
    232c:	ab 83       	std	Y+3, r26	; 0x03
    232e:	bc 83       	std	Y+4, r27	; 0x04
    2330:	26 e6       	ldi	r18, 0x66	; 102
    2332:	36 e6       	ldi	r19, 0x66	; 102
    2334:	46 e6       	ldi	r20, 0x66	; 102
    2336:	55 e4       	ldi	r21, 0x45	; 69
    2338:	69 81       	ldd	r22, Y+1	; 0x01
    233a:	7a 81       	ldd	r23, Y+2	; 0x02
    233c:	8b 81       	ldd	r24, Y+3	; 0x03
    233e:	9c 81       	ldd	r25, Y+4	; 0x04
    2340:	0e 94 60 21 	call	0x42c0	; 0x42c0 <__mulsf3>
    2344:	dc 01       	movw	r26, r24
    2346:	cb 01       	movw	r24, r22
    2348:	8d 83       	std	Y+5, r24	; 0x05
    234a:	9e 83       	std	Y+6, r25	; 0x06
    234c:	af 83       	std	Y+7, r26	; 0x07
    234e:	b8 87       	std	Y+8, r27	; 0x08
    2350:	20 e0       	ldi	r18, 0x00	; 0
    2352:	30 e0       	ldi	r19, 0x00	; 0
    2354:	40 e8       	ldi	r20, 0x80	; 128
    2356:	5f e3       	ldi	r21, 0x3F	; 63
    2358:	6d 81       	ldd	r22, Y+5	; 0x05
    235a:	7e 81       	ldd	r23, Y+6	; 0x06
    235c:	8f 81       	ldd	r24, Y+7	; 0x07
    235e:	98 85       	ldd	r25, Y+8	; 0x08
    2360:	0e 94 0d 20 	call	0x401a	; 0x401a <__cmpsf2>
    2364:	88 23       	and	r24, r24
    2366:	2c f4       	brge	.+10     	; 0x2372 <main+0x7c>
    2368:	81 e0       	ldi	r24, 0x01	; 1
    236a:	90 e0       	ldi	r25, 0x00	; 0
    236c:	9a 87       	std	Y+10, r25	; 0x0a
    236e:	89 87       	std	Y+9, r24	; 0x09
    2370:	3f c0       	rjmp	.+126    	; 0x23f0 <main+0xfa>
    2372:	20 e0       	ldi	r18, 0x00	; 0
    2374:	3f ef       	ldi	r19, 0xFF	; 255
    2376:	4f e7       	ldi	r20, 0x7F	; 127
    2378:	57 e4       	ldi	r21, 0x47	; 71
    237a:	6d 81       	ldd	r22, Y+5	; 0x05
    237c:	7e 81       	ldd	r23, Y+6	; 0x06
    237e:	8f 81       	ldd	r24, Y+7	; 0x07
    2380:	98 85       	ldd	r25, Y+8	; 0x08
    2382:	0e 94 5c 21 	call	0x42b8	; 0x42b8 <__gesf2>
    2386:	18 16       	cp	r1, r24
    2388:	4c f5       	brge	.+82     	; 0x23dc <main+0xe6>
    238a:	20 e0       	ldi	r18, 0x00	; 0
    238c:	30 e0       	ldi	r19, 0x00	; 0
    238e:	40 e2       	ldi	r20, 0x20	; 32
    2390:	51 e4       	ldi	r21, 0x41	; 65
    2392:	69 81       	ldd	r22, Y+1	; 0x01
    2394:	7a 81       	ldd	r23, Y+2	; 0x02
    2396:	8b 81       	ldd	r24, Y+3	; 0x03
    2398:	9c 81       	ldd	r25, Y+4	; 0x04
    239a:	0e 94 60 21 	call	0x42c0	; 0x42c0 <__mulsf3>
    239e:	dc 01       	movw	r26, r24
    23a0:	cb 01       	movw	r24, r22
    23a2:	bc 01       	movw	r22, r24
    23a4:	cd 01       	movw	r24, r26
    23a6:	0e 94 7e 20 	call	0x40fc	; 0x40fc <__fixunssfsi>
    23aa:	dc 01       	movw	r26, r24
    23ac:	cb 01       	movw	r24, r22
    23ae:	9a 87       	std	Y+10, r25	; 0x0a
    23b0:	89 87       	std	Y+9, r24	; 0x09
    23b2:	0f c0       	rjmp	.+30     	; 0x23d2 <main+0xdc>
    23b4:	80 e7       	ldi	r24, 0x70	; 112
    23b6:	91 e0       	ldi	r25, 0x01	; 1
    23b8:	9c 87       	std	Y+12, r25	; 0x0c
    23ba:	8b 87       	std	Y+11, r24	; 0x0b
    23bc:	8b 85       	ldd	r24, Y+11	; 0x0b
    23be:	9c 85       	ldd	r25, Y+12	; 0x0c
    23c0:	01 97       	sbiw	r24, 0x01	; 1
    23c2:	f1 f7       	brne	.-4      	; 0x23c0 <main+0xca>
    23c4:	9c 87       	std	Y+12, r25	; 0x0c
    23c6:	8b 87       	std	Y+11, r24	; 0x0b
    23c8:	89 85       	ldd	r24, Y+9	; 0x09
    23ca:	9a 85       	ldd	r25, Y+10	; 0x0a
    23cc:	01 97       	sbiw	r24, 0x01	; 1
    23ce:	9a 87       	std	Y+10, r25	; 0x0a
    23d0:	89 87       	std	Y+9, r24	; 0x09
    23d2:	89 85       	ldd	r24, Y+9	; 0x09
    23d4:	9a 85       	ldd	r25, Y+10	; 0x0a
    23d6:	00 97       	sbiw	r24, 0x00	; 0
    23d8:	69 f7       	brne	.-38     	; 0x23b4 <main+0xbe>
    23da:	14 c0       	rjmp	.+40     	; 0x2404 <main+0x10e>
    23dc:	6d 81       	ldd	r22, Y+5	; 0x05
    23de:	7e 81       	ldd	r23, Y+6	; 0x06
    23e0:	8f 81       	ldd	r24, Y+7	; 0x07
    23e2:	98 85       	ldd	r25, Y+8	; 0x08
    23e4:	0e 94 7e 20 	call	0x40fc	; 0x40fc <__fixunssfsi>
    23e8:	dc 01       	movw	r26, r24
    23ea:	cb 01       	movw	r24, r22
    23ec:	9a 87       	std	Y+10, r25	; 0x0a
    23ee:	89 87       	std	Y+9, r24	; 0x09
    23f0:	89 85       	ldd	r24, Y+9	; 0x09
    23f2:	9a 85       	ldd	r25, Y+10	; 0x0a
    23f4:	9e 87       	std	Y+14, r25	; 0x0e
    23f6:	8d 87       	std	Y+13, r24	; 0x0d
    23f8:	8d 85       	ldd	r24, Y+13	; 0x0d
    23fa:	9e 85       	ldd	r25, Y+14	; 0x0e
    23fc:	01 97       	sbiw	r24, 0x01	; 1
    23fe:	f1 f7       	brne	.-4      	; 0x23fc <main+0x106>
    2400:	9e 87       	std	Y+14, r25	; 0x0e
    2402:	8d 87       	std	Y+13, r24	; 0x0d
    2404:	0b d0       	rcall	.+22     	; 0x241c <block_pick>
    2406:	80 e0       	ldi	r24, 0x00	; 0
    2408:	90 e0       	ldi	r25, 0x00	; 0
    240a:	2e 96       	adiw	r28, 0x0e	; 14
    240c:	0f b6       	in	r0, 0x3f	; 63
    240e:	f8 94       	cli
    2410:	de bf       	out	0x3e, r29	; 62
    2412:	0f be       	out	0x3f, r0	; 63
    2414:	cd bf       	out	0x3d, r28	; 61
    2416:	df 91       	pop	r29
    2418:	cf 91       	pop	r28
    241a:	08 95       	ret

0000241c <block_pick>:
    241c:	0f 93       	push	r16
    241e:	1f 93       	push	r17
    2420:	cf 93       	push	r28
    2422:	df 93       	push	r29
    2424:	cd b7       	in	r28, 0x3d	; 61
    2426:	de b7       	in	r29, 0x3e	; 62
    2428:	c4 5c       	subi	r28, 0xC4	; 196
    242a:	d1 09       	sbc	r29, r1
    242c:	0f b6       	in	r0, 0x3f	; 63
    242e:	f8 94       	cli
    2430:	de bf       	out	0x3e, r29	; 62
    2432:	0f be       	out	0x3f, r0	; 63
    2434:	cd bf       	out	0x3d, r28	; 61
    2436:	81 e0       	ldi	r24, 0x01	; 1
    2438:	90 e0       	ldi	r25, 0x00	; 0
    243a:	9a 83       	std	Y+2, r25	; 0x02
    243c:	89 83       	std	Y+1, r24	; 0x01
    243e:	81 e0       	ldi	r24, 0x01	; 1
    2440:	90 e0       	ldi	r25, 0x00	; 0
    2442:	9c 83       	std	Y+4, r25	; 0x04
    2444:	8b 83       	std	Y+3, r24	; 0x03
    2446:	3b de       	rcall	.-906    	; 0x20be <stop>
    2448:	80 e0       	ldi	r24, 0x00	; 0
    244a:	90 e0       	ldi	r25, 0x00	; 0
    244c:	a8 ec       	ldi	r26, 0xC8	; 200
    244e:	b2 e4       	ldi	r27, 0x42	; 66
    2450:	8d 8f       	std	Y+29, r24	; 0x1d
    2452:	9e 8f       	std	Y+30, r25	; 0x1e
    2454:	af 8f       	std	Y+31, r26	; 0x1f
    2456:	b8 a3       	std	Y+32, r27	; 0x20
    2458:	26 e6       	ldi	r18, 0x66	; 102
    245a:	36 e6       	ldi	r19, 0x66	; 102
    245c:	46 e6       	ldi	r20, 0x66	; 102
    245e:	55 e4       	ldi	r21, 0x45	; 69
    2460:	6d 8d       	ldd	r22, Y+29	; 0x1d
    2462:	7e 8d       	ldd	r23, Y+30	; 0x1e
    2464:	8f 8d       	ldd	r24, Y+31	; 0x1f
    2466:	98 a1       	ldd	r25, Y+32	; 0x20
    2468:	0e 94 60 21 	call	0x42c0	; 0x42c0 <__mulsf3>
    246c:	dc 01       	movw	r26, r24
    246e:	cb 01       	movw	r24, r22
    2470:	89 a3       	std	Y+33, r24	; 0x21
    2472:	9a a3       	std	Y+34, r25	; 0x22
    2474:	ab a3       	std	Y+35, r26	; 0x23
    2476:	bc a3       	std	Y+36, r27	; 0x24
    2478:	20 e0       	ldi	r18, 0x00	; 0
    247a:	30 e0       	ldi	r19, 0x00	; 0
    247c:	40 e8       	ldi	r20, 0x80	; 128
    247e:	5f e3       	ldi	r21, 0x3F	; 63
    2480:	69 a1       	ldd	r22, Y+33	; 0x21
    2482:	7a a1       	ldd	r23, Y+34	; 0x22
    2484:	8b a1       	ldd	r24, Y+35	; 0x23
    2486:	9c a1       	ldd	r25, Y+36	; 0x24
    2488:	0e 94 0d 20 	call	0x401a	; 0x401a <__cmpsf2>
    248c:	88 23       	and	r24, r24
    248e:	2c f4       	brge	.+10     	; 0x249a <block_pick+0x7e>
    2490:	81 e0       	ldi	r24, 0x01	; 1
    2492:	90 e0       	ldi	r25, 0x00	; 0
    2494:	9e a3       	std	Y+38, r25	; 0x26
    2496:	8d a3       	std	Y+37, r24	; 0x25
    2498:	3f c0       	rjmp	.+126    	; 0x2518 <block_pick+0xfc>
    249a:	20 e0       	ldi	r18, 0x00	; 0
    249c:	3f ef       	ldi	r19, 0xFF	; 255
    249e:	4f e7       	ldi	r20, 0x7F	; 127
    24a0:	57 e4       	ldi	r21, 0x47	; 71
    24a2:	69 a1       	ldd	r22, Y+33	; 0x21
    24a4:	7a a1       	ldd	r23, Y+34	; 0x22
    24a6:	8b a1       	ldd	r24, Y+35	; 0x23
    24a8:	9c a1       	ldd	r25, Y+36	; 0x24
    24aa:	0e 94 5c 21 	call	0x42b8	; 0x42b8 <__gesf2>
    24ae:	18 16       	cp	r1, r24
    24b0:	4c f5       	brge	.+82     	; 0x2504 <block_pick+0xe8>
    24b2:	20 e0       	ldi	r18, 0x00	; 0
    24b4:	30 e0       	ldi	r19, 0x00	; 0
    24b6:	40 e2       	ldi	r20, 0x20	; 32
    24b8:	51 e4       	ldi	r21, 0x41	; 65
    24ba:	6d 8d       	ldd	r22, Y+29	; 0x1d
    24bc:	7e 8d       	ldd	r23, Y+30	; 0x1e
    24be:	8f 8d       	ldd	r24, Y+31	; 0x1f
    24c0:	98 a1       	ldd	r25, Y+32	; 0x20
    24c2:	0e 94 60 21 	call	0x42c0	; 0x42c0 <__mulsf3>
    24c6:	dc 01       	movw	r26, r24
    24c8:	cb 01       	movw	r24, r22
    24ca:	bc 01       	movw	r22, r24
    24cc:	cd 01       	movw	r24, r26
    24ce:	0e 94 7e 20 	call	0x40fc	; 0x40fc <__fixunssfsi>
    24d2:	dc 01       	movw	r26, r24
    24d4:	cb 01       	movw	r24, r22
    24d6:	9e a3       	std	Y+38, r25	; 0x26
    24d8:	8d a3       	std	Y+37, r24	; 0x25
    24da:	0f c0       	rjmp	.+30     	; 0x24fa <block_pick+0xde>
    24dc:	80 e7       	ldi	r24, 0x70	; 112
    24de:	91 e0       	ldi	r25, 0x01	; 1
    24e0:	98 a7       	std	Y+40, r25	; 0x28
    24e2:	8f a3       	std	Y+39, r24	; 0x27
    24e4:	8f a1       	ldd	r24, Y+39	; 0x27
    24e6:	98 a5       	ldd	r25, Y+40	; 0x28
    24e8:	01 97       	sbiw	r24, 0x01	; 1
    24ea:	f1 f7       	brne	.-4      	; 0x24e8 <block_pick+0xcc>
    24ec:	98 a7       	std	Y+40, r25	; 0x28
    24ee:	8f a3       	std	Y+39, r24	; 0x27
    24f0:	8d a1       	ldd	r24, Y+37	; 0x25
    24f2:	9e a1       	ldd	r25, Y+38	; 0x26
    24f4:	01 97       	sbiw	r24, 0x01	; 1
    24f6:	9e a3       	std	Y+38, r25	; 0x26
    24f8:	8d a3       	std	Y+37, r24	; 0x25
    24fa:	8d a1       	ldd	r24, Y+37	; 0x25
    24fc:	9e a1       	ldd	r25, Y+38	; 0x26
    24fe:	00 97       	sbiw	r24, 0x00	; 0
    2500:	69 f7       	brne	.-38     	; 0x24dc <block_pick+0xc0>
    2502:	14 c0       	rjmp	.+40     	; 0x252c <block_pick+0x110>
    2504:	69 a1       	ldd	r22, Y+33	; 0x21
    2506:	7a a1       	ldd	r23, Y+34	; 0x22
    2508:	8b a1       	ldd	r24, Y+35	; 0x23
    250a:	9c a1       	ldd	r25, Y+36	; 0x24
    250c:	0e 94 7e 20 	call	0x40fc	; 0x40fc <__fixunssfsi>
    2510:	dc 01       	movw	r26, r24
    2512:	cb 01       	movw	r24, r22
    2514:	9e a3       	std	Y+38, r25	; 0x26
    2516:	8d a3       	std	Y+37, r24	; 0x25
    2518:	8d a1       	ldd	r24, Y+37	; 0x25
    251a:	9e a1       	ldd	r25, Y+38	; 0x26
    251c:	9a a7       	std	Y+42, r25	; 0x2a
    251e:	89 a7       	std	Y+41, r24	; 0x29
    2520:	89 a5       	ldd	r24, Y+41	; 0x29
    2522:	9a a5       	ldd	r25, Y+42	; 0x2a
    2524:	01 97       	sbiw	r24, 0x01	; 1
    2526:	f1 f7       	brne	.-4      	; 0x2524 <block_pick+0x108>
    2528:	9a a7       	std	Y+42, r25	; 0x2a
    252a:	89 a7       	std	Y+41, r24	; 0x29
    252c:	0e 94 76 1e 	call	0x3cec	; 0x3cec <turn_left>
    2530:	bd dd       	rcall	.-1158   	; 0x20ac <right>
    2532:	80 e0       	ldi	r24, 0x00	; 0
    2534:	90 e0       	ldi	r25, 0x00	; 0
    2536:	a0 ef       	ldi	r26, 0xF0	; 240
    2538:	b1 e4       	ldi	r27, 0x41	; 65
    253a:	8b a7       	std	Y+43, r24	; 0x2b
    253c:	9c a7       	std	Y+44, r25	; 0x2c
    253e:	ad a7       	std	Y+45, r26	; 0x2d
    2540:	be a7       	std	Y+46, r27	; 0x2e
    2542:	26 e6       	ldi	r18, 0x66	; 102
    2544:	36 e6       	ldi	r19, 0x66	; 102
    2546:	46 e6       	ldi	r20, 0x66	; 102
    2548:	55 e4       	ldi	r21, 0x45	; 69
    254a:	6b a5       	ldd	r22, Y+43	; 0x2b
    254c:	7c a5       	ldd	r23, Y+44	; 0x2c
    254e:	8d a5       	ldd	r24, Y+45	; 0x2d
    2550:	9e a5       	ldd	r25, Y+46	; 0x2e
    2552:	0e 94 60 21 	call	0x42c0	; 0x42c0 <__mulsf3>
    2556:	dc 01       	movw	r26, r24
    2558:	cb 01       	movw	r24, r22
    255a:	8f a7       	std	Y+47, r24	; 0x2f
    255c:	98 ab       	std	Y+48, r25	; 0x30
    255e:	a9 ab       	std	Y+49, r26	; 0x31
    2560:	ba ab       	std	Y+50, r27	; 0x32
    2562:	20 e0       	ldi	r18, 0x00	; 0
    2564:	30 e0       	ldi	r19, 0x00	; 0
    2566:	40 e8       	ldi	r20, 0x80	; 128
    2568:	5f e3       	ldi	r21, 0x3F	; 63
    256a:	6f a5       	ldd	r22, Y+47	; 0x2f
    256c:	78 a9       	ldd	r23, Y+48	; 0x30
    256e:	89 a9       	ldd	r24, Y+49	; 0x31
    2570:	9a a9       	ldd	r25, Y+50	; 0x32
    2572:	0e 94 0d 20 	call	0x401a	; 0x401a <__cmpsf2>
    2576:	88 23       	and	r24, r24
    2578:	2c f4       	brge	.+10     	; 0x2584 <block_pick+0x168>
    257a:	81 e0       	ldi	r24, 0x01	; 1
    257c:	90 e0       	ldi	r25, 0x00	; 0
    257e:	9c ab       	std	Y+52, r25	; 0x34
    2580:	8b ab       	std	Y+51, r24	; 0x33
    2582:	3f c0       	rjmp	.+126    	; 0x2602 <block_pick+0x1e6>
    2584:	20 e0       	ldi	r18, 0x00	; 0
    2586:	3f ef       	ldi	r19, 0xFF	; 255
    2588:	4f e7       	ldi	r20, 0x7F	; 127
    258a:	57 e4       	ldi	r21, 0x47	; 71
    258c:	6f a5       	ldd	r22, Y+47	; 0x2f
    258e:	78 a9       	ldd	r23, Y+48	; 0x30
    2590:	89 a9       	ldd	r24, Y+49	; 0x31
    2592:	9a a9       	ldd	r25, Y+50	; 0x32
    2594:	0e 94 5c 21 	call	0x42b8	; 0x42b8 <__gesf2>
    2598:	18 16       	cp	r1, r24
    259a:	4c f5       	brge	.+82     	; 0x25ee <block_pick+0x1d2>
    259c:	20 e0       	ldi	r18, 0x00	; 0
    259e:	30 e0       	ldi	r19, 0x00	; 0
    25a0:	40 e2       	ldi	r20, 0x20	; 32
    25a2:	51 e4       	ldi	r21, 0x41	; 65
    25a4:	6b a5       	ldd	r22, Y+43	; 0x2b
    25a6:	7c a5       	ldd	r23, Y+44	; 0x2c
    25a8:	8d a5       	ldd	r24, Y+45	; 0x2d
    25aa:	9e a5       	ldd	r25, Y+46	; 0x2e
    25ac:	0e 94 60 21 	call	0x42c0	; 0x42c0 <__mulsf3>
    25b0:	dc 01       	movw	r26, r24
    25b2:	cb 01       	movw	r24, r22
    25b4:	bc 01       	movw	r22, r24
    25b6:	cd 01       	movw	r24, r26
    25b8:	0e 94 7e 20 	call	0x40fc	; 0x40fc <__fixunssfsi>
    25bc:	dc 01       	movw	r26, r24
    25be:	cb 01       	movw	r24, r22
    25c0:	9c ab       	std	Y+52, r25	; 0x34
    25c2:	8b ab       	std	Y+51, r24	; 0x33
    25c4:	0f c0       	rjmp	.+30     	; 0x25e4 <block_pick+0x1c8>
    25c6:	80 e7       	ldi	r24, 0x70	; 112
    25c8:	91 e0       	ldi	r25, 0x01	; 1
    25ca:	9e ab       	std	Y+54, r25	; 0x36
    25cc:	8d ab       	std	Y+53, r24	; 0x35
    25ce:	8d a9       	ldd	r24, Y+53	; 0x35
    25d0:	9e a9       	ldd	r25, Y+54	; 0x36
    25d2:	01 97       	sbiw	r24, 0x01	; 1
    25d4:	f1 f7       	brne	.-4      	; 0x25d2 <block_pick+0x1b6>
    25d6:	9e ab       	std	Y+54, r25	; 0x36
    25d8:	8d ab       	std	Y+53, r24	; 0x35
    25da:	8b a9       	ldd	r24, Y+51	; 0x33
    25dc:	9c a9       	ldd	r25, Y+52	; 0x34
    25de:	01 97       	sbiw	r24, 0x01	; 1
    25e0:	9c ab       	std	Y+52, r25	; 0x34
    25e2:	8b ab       	std	Y+51, r24	; 0x33
    25e4:	8b a9       	ldd	r24, Y+51	; 0x33
    25e6:	9c a9       	ldd	r25, Y+52	; 0x34
    25e8:	00 97       	sbiw	r24, 0x00	; 0
    25ea:	69 f7       	brne	.-38     	; 0x25c6 <block_pick+0x1aa>
    25ec:	14 c0       	rjmp	.+40     	; 0x2616 <block_pick+0x1fa>
    25ee:	6f a5       	ldd	r22, Y+47	; 0x2f
    25f0:	78 a9       	ldd	r23, Y+48	; 0x30
    25f2:	89 a9       	ldd	r24, Y+49	; 0x31
    25f4:	9a a9       	ldd	r25, Y+50	; 0x32
    25f6:	0e 94 7e 20 	call	0x40fc	; 0x40fc <__fixunssfsi>
    25fa:	dc 01       	movw	r26, r24
    25fc:	cb 01       	movw	r24, r22
    25fe:	9c ab       	std	Y+52, r25	; 0x34
    2600:	8b ab       	std	Y+51, r24	; 0x33
    2602:	8b a9       	ldd	r24, Y+51	; 0x33
    2604:	9c a9       	ldd	r25, Y+52	; 0x34
    2606:	98 af       	std	Y+56, r25	; 0x38
    2608:	8f ab       	std	Y+55, r24	; 0x37
    260a:	8f a9       	ldd	r24, Y+55	; 0x37
    260c:	98 ad       	ldd	r25, Y+56	; 0x38
    260e:	01 97       	sbiw	r24, 0x01	; 1
    2610:	f1 f7       	brne	.-4      	; 0x260e <block_pick+0x1f2>
    2612:	98 af       	std	Y+56, r25	; 0x38
    2614:	8f ab       	std	Y+55, r24	; 0x37
    2616:	53 dd       	rcall	.-1370   	; 0x20be <stop>
    2618:	80 e0       	ldi	r24, 0x00	; 0
    261a:	90 e0       	ldi	r25, 0x00	; 0
    261c:	aa e7       	ldi	r26, 0x7A	; 122
    261e:	b4 e4       	ldi	r27, 0x44	; 68
    2620:	89 af       	std	Y+57, r24	; 0x39
    2622:	9a af       	std	Y+58, r25	; 0x3a
    2624:	ab af       	std	Y+59, r26	; 0x3b
    2626:	bc af       	std	Y+60, r27	; 0x3c
    2628:	26 e6       	ldi	r18, 0x66	; 102
    262a:	36 e6       	ldi	r19, 0x66	; 102
    262c:	46 e6       	ldi	r20, 0x66	; 102
    262e:	55 e4       	ldi	r21, 0x45	; 69
    2630:	69 ad       	ldd	r22, Y+57	; 0x39
    2632:	7a ad       	ldd	r23, Y+58	; 0x3a
    2634:	8b ad       	ldd	r24, Y+59	; 0x3b
    2636:	9c ad       	ldd	r25, Y+60	; 0x3c
    2638:	0e 94 60 21 	call	0x42c0	; 0x42c0 <__mulsf3>
    263c:	dc 01       	movw	r26, r24
    263e:	cb 01       	movw	r24, r22
    2640:	9e 01       	movw	r18, r28
    2642:	23 5c       	subi	r18, 0xC3	; 195
    2644:	3f 4f       	sbci	r19, 0xFF	; 255
    2646:	f9 01       	movw	r30, r18
    2648:	80 83       	st	Z, r24
    264a:	91 83       	std	Z+1, r25	; 0x01
    264c:	a2 83       	std	Z+2, r26	; 0x02
    264e:	b3 83       	std	Z+3, r27	; 0x03
    2650:	20 e0       	ldi	r18, 0x00	; 0
    2652:	30 e0       	ldi	r19, 0x00	; 0
    2654:	40 e8       	ldi	r20, 0x80	; 128
    2656:	5f e3       	ldi	r21, 0x3F	; 63
    2658:	ce 01       	movw	r24, r28
    265a:	cd 96       	adiw	r24, 0x3d	; 61
    265c:	fc 01       	movw	r30, r24
    265e:	60 81       	ld	r22, Z
    2660:	71 81       	ldd	r23, Z+1	; 0x01
    2662:	82 81       	ldd	r24, Z+2	; 0x02
    2664:	93 81       	ldd	r25, Z+3	; 0x03
    2666:	0e 94 0d 20 	call	0x401a	; 0x401a <__cmpsf2>
    266a:	88 23       	and	r24, r24
    266c:	4c f4       	brge	.+18     	; 0x2680 <block_pick+0x264>
    266e:	ce 01       	movw	r24, r28
    2670:	8f 5b       	subi	r24, 0xBF	; 191
    2672:	9f 4f       	sbci	r25, 0xFF	; 255
    2674:	21 e0       	ldi	r18, 0x01	; 1
    2676:	30 e0       	ldi	r19, 0x00	; 0
    2678:	fc 01       	movw	r30, r24
    267a:	31 83       	std	Z+1, r19	; 0x01
    267c:	20 83       	st	Z, r18
    267e:	68 c0       	rjmp	.+208    	; 0x2750 <block_pick+0x334>
    2680:	20 e0       	ldi	r18, 0x00	; 0
    2682:	3f ef       	ldi	r19, 0xFF	; 255
    2684:	4f e7       	ldi	r20, 0x7F	; 127
    2686:	57 e4       	ldi	r21, 0x47	; 71
    2688:	ce 01       	movw	r24, r28
    268a:	cd 96       	adiw	r24, 0x3d	; 61
    268c:	fc 01       	movw	r30, r24
    268e:	60 81       	ld	r22, Z
    2690:	71 81       	ldd	r23, Z+1	; 0x01
    2692:	82 81       	ldd	r24, Z+2	; 0x02
    2694:	93 81       	ldd	r25, Z+3	; 0x03
    2696:	0e 94 5c 21 	call	0x42b8	; 0x42b8 <__gesf2>
    269a:	18 16       	cp	r1, r24
    269c:	0c f0       	brlt	.+2      	; 0x26a0 <block_pick+0x284>
    269e:	47 c0       	rjmp	.+142    	; 0x272e <block_pick+0x312>
    26a0:	20 e0       	ldi	r18, 0x00	; 0
    26a2:	30 e0       	ldi	r19, 0x00	; 0
    26a4:	40 e2       	ldi	r20, 0x20	; 32
    26a6:	51 e4       	ldi	r21, 0x41	; 65
    26a8:	69 ad       	ldd	r22, Y+57	; 0x39
    26aa:	7a ad       	ldd	r23, Y+58	; 0x3a
    26ac:	8b ad       	ldd	r24, Y+59	; 0x3b
    26ae:	9c ad       	ldd	r25, Y+60	; 0x3c
    26b0:	0e 94 60 21 	call	0x42c0	; 0x42c0 <__mulsf3>
    26b4:	dc 01       	movw	r26, r24
    26b6:	cb 01       	movw	r24, r22
    26b8:	8e 01       	movw	r16, r28
    26ba:	0f 5b       	subi	r16, 0xBF	; 191
    26bc:	1f 4f       	sbci	r17, 0xFF	; 255
    26be:	bc 01       	movw	r22, r24
    26c0:	cd 01       	movw	r24, r26
    26c2:	0e 94 7e 20 	call	0x40fc	; 0x40fc <__fixunssfsi>
    26c6:	dc 01       	movw	r26, r24
    26c8:	cb 01       	movw	r24, r22
    26ca:	f8 01       	movw	r30, r16
    26cc:	91 83       	std	Z+1, r25	; 0x01
    26ce:	80 83       	st	Z, r24
    26d0:	24 c0       	rjmp	.+72     	; 0x271a <block_pick+0x2fe>
    26d2:	ce 01       	movw	r24, r28
    26d4:	8d 5b       	subi	r24, 0xBD	; 189
    26d6:	9f 4f       	sbci	r25, 0xFF	; 255
    26d8:	20 e7       	ldi	r18, 0x70	; 112
    26da:	31 e0       	ldi	r19, 0x01	; 1
    26dc:	fc 01       	movw	r30, r24
    26de:	31 83       	std	Z+1, r19	; 0x01
    26e0:	20 83       	st	Z, r18
    26e2:	ce 01       	movw	r24, r28
    26e4:	8d 5b       	subi	r24, 0xBD	; 189
    26e6:	9f 4f       	sbci	r25, 0xFF	; 255
    26e8:	fc 01       	movw	r30, r24
    26ea:	80 81       	ld	r24, Z
    26ec:	91 81       	ldd	r25, Z+1	; 0x01
    26ee:	01 97       	sbiw	r24, 0x01	; 1
    26f0:	f1 f7       	brne	.-4      	; 0x26ee <block_pick+0x2d2>
    26f2:	9e 01       	movw	r18, r28
    26f4:	2d 5b       	subi	r18, 0xBD	; 189
    26f6:	3f 4f       	sbci	r19, 0xFF	; 255
    26f8:	f9 01       	movw	r30, r18
    26fa:	91 83       	std	Z+1, r25	; 0x01
    26fc:	80 83       	st	Z, r24
    26fe:	ce 01       	movw	r24, r28
    2700:	8f 5b       	subi	r24, 0xBF	; 191
    2702:	9f 4f       	sbci	r25, 0xFF	; 255
    2704:	9e 01       	movw	r18, r28
    2706:	2f 5b       	subi	r18, 0xBF	; 191
    2708:	3f 4f       	sbci	r19, 0xFF	; 255
    270a:	f9 01       	movw	r30, r18
    270c:	20 81       	ld	r18, Z
    270e:	31 81       	ldd	r19, Z+1	; 0x01
    2710:	21 50       	subi	r18, 0x01	; 1
    2712:	31 09       	sbc	r19, r1
    2714:	fc 01       	movw	r30, r24
    2716:	31 83       	std	Z+1, r19	; 0x01
    2718:	20 83       	st	Z, r18
    271a:	ce 01       	movw	r24, r28
    271c:	8f 5b       	subi	r24, 0xBF	; 191
    271e:	9f 4f       	sbci	r25, 0xFF	; 255
    2720:	fc 01       	movw	r30, r24
    2722:	80 81       	ld	r24, Z
    2724:	91 81       	ldd	r25, Z+1	; 0x01
    2726:	00 97       	sbiw	r24, 0x00	; 0
    2728:	a1 f6       	brne	.-88     	; 0x26d2 <block_pick+0x2b6>
    272a:	0c 94 11 1c 	jmp	0x3822	; 0x3822 <block_pick+0x1406>
    272e:	8e 01       	movw	r16, r28
    2730:	0f 5b       	subi	r16, 0xBF	; 191
    2732:	1f 4f       	sbci	r17, 0xFF	; 255
    2734:	ce 01       	movw	r24, r28
    2736:	cd 96       	adiw	r24, 0x3d	; 61
    2738:	fc 01       	movw	r30, r24
    273a:	60 81       	ld	r22, Z
    273c:	71 81       	ldd	r23, Z+1	; 0x01
    273e:	82 81       	ldd	r24, Z+2	; 0x02
    2740:	93 81       	ldd	r25, Z+3	; 0x03
    2742:	0e 94 7e 20 	call	0x40fc	; 0x40fc <__fixunssfsi>
    2746:	dc 01       	movw	r26, r24
    2748:	cb 01       	movw	r24, r22
    274a:	f8 01       	movw	r30, r16
    274c:	91 83       	std	Z+1, r25	; 0x01
    274e:	80 83       	st	Z, r24
    2750:	ce 01       	movw	r24, r28
    2752:	8b 5b       	subi	r24, 0xBB	; 187
    2754:	9f 4f       	sbci	r25, 0xFF	; 255
    2756:	9e 01       	movw	r18, r28
    2758:	2f 5b       	subi	r18, 0xBF	; 191
    275a:	3f 4f       	sbci	r19, 0xFF	; 255
    275c:	f9 01       	movw	r30, r18
    275e:	20 81       	ld	r18, Z
    2760:	31 81       	ldd	r19, Z+1	; 0x01
    2762:	fc 01       	movw	r30, r24
    2764:	31 83       	std	Z+1, r19	; 0x01
    2766:	20 83       	st	Z, r18
    2768:	ce 01       	movw	r24, r28
    276a:	8b 5b       	subi	r24, 0xBB	; 187
    276c:	9f 4f       	sbci	r25, 0xFF	; 255
    276e:	fc 01       	movw	r30, r24
    2770:	80 81       	ld	r24, Z
    2772:	91 81       	ldd	r25, Z+1	; 0x01
    2774:	01 97       	sbiw	r24, 0x01	; 1
    2776:	f1 f7       	brne	.-4      	; 0x2774 <block_pick+0x358>
    2778:	9e 01       	movw	r18, r28
    277a:	2b 5b       	subi	r18, 0xBB	; 187
    277c:	3f 4f       	sbci	r19, 0xFF	; 255
    277e:	f9 01       	movw	r30, r18
    2780:	91 83       	std	Z+1, r25	; 0x01
    2782:	80 83       	st	Z, r24
    2784:	0c 94 11 1c 	jmp	0x3822	; 0x3822 <block_pick+0x1406>
    2788:	81 e0       	ldi	r24, 0x01	; 1
    278a:	2e d8       	rcall	.-4004   	; 0x17e8 <ADC_Conversion>
    278c:	88 2f       	mov	r24, r24
    278e:	90 e0       	ldi	r25, 0x00	; 0
    2790:	9e 83       	std	Y+6, r25	; 0x06
    2792:	8d 83       	std	Y+5, r24	; 0x05
    2794:	83 e0       	ldi	r24, 0x03	; 3
    2796:	28 d8       	rcall	.-4016   	; 0x17e8 <ADC_Conversion>
    2798:	88 2f       	mov	r24, r24
    279a:	90 e0       	ldi	r25, 0x00	; 0
    279c:	98 87       	std	Y+8, r25	; 0x08
    279e:	8f 83       	std	Y+7, r24	; 0x07
    27a0:	82 e0       	ldi	r24, 0x02	; 2
    27a2:	22 d8       	rcall	.-4028   	; 0x17e8 <ADC_Conversion>
    27a4:	88 2f       	mov	r24, r24
    27a6:	90 e0       	ldi	r25, 0x00	; 0
    27a8:	9a 87       	std	Y+10, r25	; 0x0a
    27aa:	89 87       	std	Y+9, r24	; 0x09
    27ac:	89 e0       	ldi	r24, 0x09	; 9
    27ae:	1c d8       	rcall	.-4040   	; 0x17e8 <ADC_Conversion>
    27b0:	80 93 1c 02 	sts	0x021C, r24
    27b4:	80 91 1c 02 	lds	r24, 0x021C
    27b8:	5b d8       	rcall	.-3914   	; 0x1870 <Sharp_GP2D12_estimation>
    27ba:	90 93 01 02 	sts	0x0201, r25
    27be:	80 93 00 02 	sts	0x0200, r24
    27c2:	80 91 00 02 	lds	r24, 0x0200
    27c6:	90 91 01 02 	lds	r25, 0x0201
    27ca:	23 e0       	ldi	r18, 0x03	; 3
    27cc:	30 e0       	ldi	r19, 0x00	; 0
    27ce:	ac 01       	movw	r20, r24
    27d0:	6e e0       	ldi	r22, 0x0E	; 14
    27d2:	82 e0       	ldi	r24, 0x02	; 2
    27d4:	0e 94 26 0a 	call	0x144c	; 0x144c <lcd_print>
    27d8:	80 91 00 02 	lds	r24, 0x0200
    27dc:	90 91 01 02 	lds	r25, 0x0201
    27e0:	80 39       	cpi	r24, 0x90	; 144
    27e2:	f1 e0       	ldi	r31, 0x01	; 1
    27e4:	9f 07       	cpc	r25, r31
    27e6:	08 f0       	brcs	.+2      	; 0x27ea <block_pick+0x3ce>
    27e8:	b5 c3       	rjmp	.+1898   	; 0x2f54 <block_pick+0xb38>
    27ea:	81 e0       	ldi	r24, 0x01	; 1
    27ec:	0e 94 f4 0b 	call	0x17e8	; 0x17e8 <ADC_Conversion>
    27f0:	88 2f       	mov	r24, r24
    27f2:	90 e0       	ldi	r25, 0x00	; 0
    27f4:	9c 87       	std	Y+12, r25	; 0x0c
    27f6:	8b 87       	std	Y+11, r24	; 0x0b
    27f8:	83 e0       	ldi	r24, 0x03	; 3
    27fa:	0e 94 f4 0b 	call	0x17e8	; 0x17e8 <ADC_Conversion>
    27fe:	88 2f       	mov	r24, r24
    2800:	90 e0       	ldi	r25, 0x00	; 0
    2802:	9e 87       	std	Y+14, r25	; 0x0e
    2804:	8d 87       	std	Y+13, r24	; 0x0d
    2806:	82 e0       	ldi	r24, 0x02	; 2
    2808:	0e 94 f4 0b 	call	0x17e8	; 0x17e8 <ADC_Conversion>
    280c:	88 2f       	mov	r24, r24
    280e:	90 e0       	ldi	r25, 0x00	; 0
    2810:	98 8b       	std	Y+16, r25	; 0x10
    2812:	8f 87       	std	Y+15, r24	; 0x0f
    2814:	0e 94 b4 1c 	call	0x3968	; 0x3968 <natural_behavprox>
    2818:	89 e0       	ldi	r24, 0x09	; 9
    281a:	0e 94 f4 0b 	call	0x17e8	; 0x17e8 <ADC_Conversion>
    281e:	80 93 1c 02 	sts	0x021C, r24
    2822:	80 91 1c 02 	lds	r24, 0x021C
    2826:	24 d8       	rcall	.-4024   	; 0x1870 <Sharp_GP2D12_estimation>
    2828:	90 93 01 02 	sts	0x0201, r25
    282c:	80 93 00 02 	sts	0x0200, r24
    2830:	80 91 00 02 	lds	r24, 0x0200
    2834:	90 91 01 02 	lds	r25, 0x0201
    2838:	23 e0       	ldi	r18, 0x03	; 3
    283a:	30 e0       	ldi	r19, 0x00	; 0
    283c:	ac 01       	movw	r20, r24
    283e:	6e e0       	ldi	r22, 0x0E	; 14
    2840:	82 e0       	ldi	r24, 0x02	; 2
    2842:	0e 94 26 0a 	call	0x144c	; 0x144c <lcd_print>
    2846:	80 91 00 02 	lds	r24, 0x0200
    284a:	90 91 01 02 	lds	r25, 0x0201
    284e:	85 36       	cpi	r24, 0x65	; 101
    2850:	91 05       	cpc	r25, r1
    2852:	28 f0       	brcs	.+10     	; 0x285e <block_pick+0x442>
    2854:	6a e5       	ldi	r22, 0x5A	; 90
    2856:	8a e5       	ldi	r24, 0x5A	; 90
    2858:	00 d9       	rcall	.-3584   	; 0x1a5a <velocity>
    285a:	0d dc       	rcall	.-2022   	; 0x2076 <forward>
    285c:	7a c3       	rjmp	.+1780   	; 0x2f52 <block_pick+0xb36>
    285e:	80 91 00 02 	lds	r24, 0x0200
    2862:	90 91 01 02 	lds	r25, 0x0201
    2866:	8b 35       	cpi	r24, 0x5B	; 91
    2868:	91 05       	cpc	r25, r1
    286a:	08 f4       	brcc	.+2      	; 0x286e <block_pick+0x452>
    286c:	65 c3       	rjmp	.+1738   	; 0x2f38 <block_pick+0xb1c>
    286e:	80 91 00 02 	lds	r24, 0x0200
    2872:	90 91 01 02 	lds	r25, 0x0201
    2876:	83 36       	cpi	r24, 0x63	; 99
    2878:	91 05       	cpc	r25, r1
    287a:	08 f0       	brcs	.+2      	; 0x287e <block_pick+0x462>
    287c:	5d c3       	rjmp	.+1722   	; 0x2f38 <block_pick+0xb1c>
    287e:	60 e0       	ldi	r22, 0x00	; 0
    2880:	80 e0       	ldi	r24, 0x00	; 0
    2882:	eb d8       	rcall	.-3626   	; 0x1a5a <velocity>
    2884:	1c dc       	rcall	.-1992   	; 0x20be <stop>
    2886:	9e 01       	movw	r18, r28
    2888:	29 5b       	subi	r18, 0xB9	; 185
    288a:	3f 4f       	sbci	r19, 0xFF	; 255
    288c:	80 e0       	ldi	r24, 0x00	; 0
    288e:	90 e0       	ldi	r25, 0x00	; 0
    2890:	aa e7       	ldi	r26, 0x7A	; 122
    2892:	b4 e4       	ldi	r27, 0x44	; 68
    2894:	f9 01       	movw	r30, r18
    2896:	80 83       	st	Z, r24
    2898:	91 83       	std	Z+1, r25	; 0x01
    289a:	a2 83       	std	Z+2, r26	; 0x02
    289c:	b3 83       	std	Z+3, r27	; 0x03
    289e:	8e 01       	movw	r16, r28
    28a0:	05 5b       	subi	r16, 0xB5	; 181
    28a2:	1f 4f       	sbci	r17, 0xFF	; 255
    28a4:	ce 01       	movw	r24, r28
    28a6:	89 5b       	subi	r24, 0xB9	; 185
    28a8:	9f 4f       	sbci	r25, 0xFF	; 255
    28aa:	26 e6       	ldi	r18, 0x66	; 102
    28ac:	36 e6       	ldi	r19, 0x66	; 102
    28ae:	46 e6       	ldi	r20, 0x66	; 102
    28b0:	55 e4       	ldi	r21, 0x45	; 69
    28b2:	fc 01       	movw	r30, r24
    28b4:	60 81       	ld	r22, Z
    28b6:	71 81       	ldd	r23, Z+1	; 0x01
    28b8:	82 81       	ldd	r24, Z+2	; 0x02
    28ba:	93 81       	ldd	r25, Z+3	; 0x03
    28bc:	0e 94 60 21 	call	0x42c0	; 0x42c0 <__mulsf3>
    28c0:	dc 01       	movw	r26, r24
    28c2:	cb 01       	movw	r24, r22
    28c4:	f8 01       	movw	r30, r16
    28c6:	80 83       	st	Z, r24
    28c8:	91 83       	std	Z+1, r25	; 0x01
    28ca:	a2 83       	std	Z+2, r26	; 0x02
    28cc:	b3 83       	std	Z+3, r27	; 0x03
    28ce:	ce 01       	movw	r24, r28
    28d0:	85 5b       	subi	r24, 0xB5	; 181
    28d2:	9f 4f       	sbci	r25, 0xFF	; 255
    28d4:	20 e0       	ldi	r18, 0x00	; 0
    28d6:	30 e0       	ldi	r19, 0x00	; 0
    28d8:	40 e8       	ldi	r20, 0x80	; 128
    28da:	5f e3       	ldi	r21, 0x3F	; 63
    28dc:	fc 01       	movw	r30, r24
    28de:	60 81       	ld	r22, Z
    28e0:	71 81       	ldd	r23, Z+1	; 0x01
    28e2:	82 81       	ldd	r24, Z+2	; 0x02
    28e4:	93 81       	ldd	r25, Z+3	; 0x03
    28e6:	0e 94 0d 20 	call	0x401a	; 0x401a <__cmpsf2>
    28ea:	88 23       	and	r24, r24
    28ec:	4c f4       	brge	.+18     	; 0x2900 <block_pick+0x4e4>
    28ee:	ce 01       	movw	r24, r28
    28f0:	81 5b       	subi	r24, 0xB1	; 177
    28f2:	9f 4f       	sbci	r25, 0xFF	; 255
    28f4:	21 e0       	ldi	r18, 0x01	; 1
    28f6:	30 e0       	ldi	r19, 0x00	; 0
    28f8:	fc 01       	movw	r30, r24
    28fa:	31 83       	std	Z+1, r19	; 0x01
    28fc:	20 83       	st	Z, r18
    28fe:	6d c0       	rjmp	.+218    	; 0x29da <block_pick+0x5be>
    2900:	ce 01       	movw	r24, r28
    2902:	85 5b       	subi	r24, 0xB5	; 181
    2904:	9f 4f       	sbci	r25, 0xFF	; 255
    2906:	20 e0       	ldi	r18, 0x00	; 0
    2908:	3f ef       	ldi	r19, 0xFF	; 255
    290a:	4f e7       	ldi	r20, 0x7F	; 127
    290c:	57 e4       	ldi	r21, 0x47	; 71
    290e:	fc 01       	movw	r30, r24
    2910:	60 81       	ld	r22, Z
    2912:	71 81       	ldd	r23, Z+1	; 0x01
    2914:	82 81       	ldd	r24, Z+2	; 0x02
    2916:	93 81       	ldd	r25, Z+3	; 0x03
    2918:	0e 94 5c 21 	call	0x42b8	; 0x42b8 <__gesf2>
    291c:	18 16       	cp	r1, r24
    291e:	0c f0       	brlt	.+2      	; 0x2922 <block_pick+0x506>
    2920:	4a c0       	rjmp	.+148    	; 0x29b6 <block_pick+0x59a>
    2922:	ce 01       	movw	r24, r28
    2924:	89 5b       	subi	r24, 0xB9	; 185
    2926:	9f 4f       	sbci	r25, 0xFF	; 255
    2928:	20 e0       	ldi	r18, 0x00	; 0
    292a:	30 e0       	ldi	r19, 0x00	; 0
    292c:	40 e2       	ldi	r20, 0x20	; 32
    292e:	51 e4       	ldi	r21, 0x41	; 65
    2930:	fc 01       	movw	r30, r24
    2932:	60 81       	ld	r22, Z
    2934:	71 81       	ldd	r23, Z+1	; 0x01
    2936:	82 81       	ldd	r24, Z+2	; 0x02
    2938:	93 81       	ldd	r25, Z+3	; 0x03
    293a:	0e 94 60 21 	call	0x42c0	; 0x42c0 <__mulsf3>
    293e:	dc 01       	movw	r26, r24
    2940:	cb 01       	movw	r24, r22
    2942:	8e 01       	movw	r16, r28
    2944:	01 5b       	subi	r16, 0xB1	; 177
    2946:	1f 4f       	sbci	r17, 0xFF	; 255
    2948:	bc 01       	movw	r22, r24
    294a:	cd 01       	movw	r24, r26
    294c:	0e 94 7e 20 	call	0x40fc	; 0x40fc <__fixunssfsi>
    2950:	dc 01       	movw	r26, r24
    2952:	cb 01       	movw	r24, r22
    2954:	f8 01       	movw	r30, r16
    2956:	91 83       	std	Z+1, r25	; 0x01
    2958:	80 83       	st	Z, r24
    295a:	24 c0       	rjmp	.+72     	; 0x29a4 <block_pick+0x588>
    295c:	ce 01       	movw	r24, r28
    295e:	8f 5a       	subi	r24, 0xAF	; 175
    2960:	9f 4f       	sbci	r25, 0xFF	; 255
    2962:	20 e7       	ldi	r18, 0x70	; 112
    2964:	31 e0       	ldi	r19, 0x01	; 1
    2966:	fc 01       	movw	r30, r24
    2968:	31 83       	std	Z+1, r19	; 0x01
    296a:	20 83       	st	Z, r18
    296c:	ce 01       	movw	r24, r28
    296e:	8f 5a       	subi	r24, 0xAF	; 175
    2970:	9f 4f       	sbci	r25, 0xFF	; 255
    2972:	fc 01       	movw	r30, r24
    2974:	80 81       	ld	r24, Z
    2976:	91 81       	ldd	r25, Z+1	; 0x01
    2978:	01 97       	sbiw	r24, 0x01	; 1
    297a:	f1 f7       	brne	.-4      	; 0x2978 <block_pick+0x55c>
    297c:	9e 01       	movw	r18, r28
    297e:	2f 5a       	subi	r18, 0xAF	; 175
    2980:	3f 4f       	sbci	r19, 0xFF	; 255
    2982:	f9 01       	movw	r30, r18
    2984:	91 83       	std	Z+1, r25	; 0x01
    2986:	80 83       	st	Z, r24
    2988:	ce 01       	movw	r24, r28
    298a:	81 5b       	subi	r24, 0xB1	; 177
    298c:	9f 4f       	sbci	r25, 0xFF	; 255
    298e:	9e 01       	movw	r18, r28
    2990:	21 5b       	subi	r18, 0xB1	; 177
    2992:	3f 4f       	sbci	r19, 0xFF	; 255
    2994:	f9 01       	movw	r30, r18
    2996:	20 81       	ld	r18, Z
    2998:	31 81       	ldd	r19, Z+1	; 0x01
    299a:	21 50       	subi	r18, 0x01	; 1
    299c:	31 09       	sbc	r19, r1
    299e:	fc 01       	movw	r30, r24
    29a0:	31 83       	std	Z+1, r19	; 0x01
    29a2:	20 83       	st	Z, r18
    29a4:	ce 01       	movw	r24, r28
    29a6:	81 5b       	subi	r24, 0xB1	; 177
    29a8:	9f 4f       	sbci	r25, 0xFF	; 255
    29aa:	fc 01       	movw	r30, r24
    29ac:	80 81       	ld	r24, Z
    29ae:	91 81       	ldd	r25, Z+1	; 0x01
    29b0:	00 97       	sbiw	r24, 0x00	; 0
    29b2:	a1 f6       	brne	.-88     	; 0x295c <block_pick+0x540>
    29b4:	2c c0       	rjmp	.+88     	; 0x2a0e <block_pick+0x5f2>
    29b6:	8e 01       	movw	r16, r28
    29b8:	01 5b       	subi	r16, 0xB1	; 177
    29ba:	1f 4f       	sbci	r17, 0xFF	; 255
    29bc:	ce 01       	movw	r24, r28
    29be:	85 5b       	subi	r24, 0xB5	; 181
    29c0:	9f 4f       	sbci	r25, 0xFF	; 255
    29c2:	fc 01       	movw	r30, r24
    29c4:	60 81       	ld	r22, Z
    29c6:	71 81       	ldd	r23, Z+1	; 0x01
    29c8:	82 81       	ldd	r24, Z+2	; 0x02
    29ca:	93 81       	ldd	r25, Z+3	; 0x03
    29cc:	0e 94 7e 20 	call	0x40fc	; 0x40fc <__fixunssfsi>
    29d0:	dc 01       	movw	r26, r24
    29d2:	cb 01       	movw	r24, r22
    29d4:	f8 01       	movw	r30, r16
    29d6:	91 83       	std	Z+1, r25	; 0x01
    29d8:	80 83       	st	Z, r24
    29da:	ce 01       	movw	r24, r28
    29dc:	8d 5a       	subi	r24, 0xAD	; 173
    29de:	9f 4f       	sbci	r25, 0xFF	; 255
    29e0:	9e 01       	movw	r18, r28
    29e2:	21 5b       	subi	r18, 0xB1	; 177
    29e4:	3f 4f       	sbci	r19, 0xFF	; 255
    29e6:	f9 01       	movw	r30, r18
    29e8:	20 81       	ld	r18, Z
    29ea:	31 81       	ldd	r19, Z+1	; 0x01
    29ec:	fc 01       	movw	r30, r24
    29ee:	31 83       	std	Z+1, r19	; 0x01
    29f0:	20 83       	st	Z, r18
    29f2:	ce 01       	movw	r24, r28
    29f4:	8d 5a       	subi	r24, 0xAD	; 173
    29f6:	9f 4f       	sbci	r25, 0xFF	; 255
    29f8:	fc 01       	movw	r30, r24
    29fa:	80 81       	ld	r24, Z
    29fc:	91 81       	ldd	r25, Z+1	; 0x01
    29fe:	01 97       	sbiw	r24, 0x01	; 1
    2a00:	f1 f7       	brne	.-4      	; 0x29fe <block_pick+0x5e2>
    2a02:	9e 01       	movw	r18, r28
    2a04:	2d 5a       	subi	r18, 0xAD	; 173
    2a06:	3f 4f       	sbci	r19, 0xFF	; 255
    2a08:	f9 01       	movw	r30, r18
    2a0a:	91 83       	std	Z+1, r25	; 0x01
    2a0c:	80 83       	st	Z, r24
    2a0e:	28 d9       	rcall	.-3504   	; 0x1c60 <down_pick_up>
    2a10:	9e 01       	movw	r18, r28
    2a12:	2b 5a       	subi	r18, 0xAB	; 171
    2a14:	3f 4f       	sbci	r19, 0xFF	; 255
    2a16:	80 e0       	ldi	r24, 0x00	; 0
    2a18:	90 e0       	ldi	r25, 0x00	; 0
    2a1a:	aa e7       	ldi	r26, 0x7A	; 122
    2a1c:	b4 e4       	ldi	r27, 0x44	; 68
    2a1e:	f9 01       	movw	r30, r18
    2a20:	80 83       	st	Z, r24
    2a22:	91 83       	std	Z+1, r25	; 0x01
    2a24:	a2 83       	std	Z+2, r26	; 0x02
    2a26:	b3 83       	std	Z+3, r27	; 0x03
    2a28:	8e 01       	movw	r16, r28
    2a2a:	07 5a       	subi	r16, 0xA7	; 167
    2a2c:	1f 4f       	sbci	r17, 0xFF	; 255
    2a2e:	ce 01       	movw	r24, r28
    2a30:	8b 5a       	subi	r24, 0xAB	; 171
    2a32:	9f 4f       	sbci	r25, 0xFF	; 255
    2a34:	26 e6       	ldi	r18, 0x66	; 102
    2a36:	36 e6       	ldi	r19, 0x66	; 102
    2a38:	46 e6       	ldi	r20, 0x66	; 102
    2a3a:	55 e4       	ldi	r21, 0x45	; 69
    2a3c:	fc 01       	movw	r30, r24
    2a3e:	60 81       	ld	r22, Z
    2a40:	71 81       	ldd	r23, Z+1	; 0x01
    2a42:	82 81       	ldd	r24, Z+2	; 0x02
    2a44:	93 81       	ldd	r25, Z+3	; 0x03
    2a46:	0e 94 60 21 	call	0x42c0	; 0x42c0 <__mulsf3>
    2a4a:	dc 01       	movw	r26, r24
    2a4c:	cb 01       	movw	r24, r22
    2a4e:	f8 01       	movw	r30, r16
    2a50:	80 83       	st	Z, r24
    2a52:	91 83       	std	Z+1, r25	; 0x01
    2a54:	a2 83       	std	Z+2, r26	; 0x02
    2a56:	b3 83       	std	Z+3, r27	; 0x03
    2a58:	ce 01       	movw	r24, r28
    2a5a:	87 5a       	subi	r24, 0xA7	; 167
    2a5c:	9f 4f       	sbci	r25, 0xFF	; 255
    2a5e:	20 e0       	ldi	r18, 0x00	; 0
    2a60:	30 e0       	ldi	r19, 0x00	; 0
    2a62:	40 e8       	ldi	r20, 0x80	; 128
    2a64:	5f e3       	ldi	r21, 0x3F	; 63
    2a66:	fc 01       	movw	r30, r24
    2a68:	60 81       	ld	r22, Z
    2a6a:	71 81       	ldd	r23, Z+1	; 0x01
    2a6c:	82 81       	ldd	r24, Z+2	; 0x02
    2a6e:	93 81       	ldd	r25, Z+3	; 0x03
    2a70:	0e 94 0d 20 	call	0x401a	; 0x401a <__cmpsf2>
    2a74:	88 23       	and	r24, r24
    2a76:	4c f4       	brge	.+18     	; 0x2a8a <block_pick+0x66e>
    2a78:	ce 01       	movw	r24, r28
    2a7a:	83 5a       	subi	r24, 0xA3	; 163
    2a7c:	9f 4f       	sbci	r25, 0xFF	; 255
    2a7e:	21 e0       	ldi	r18, 0x01	; 1
    2a80:	30 e0       	ldi	r19, 0x00	; 0
    2a82:	fc 01       	movw	r30, r24
    2a84:	31 83       	std	Z+1, r19	; 0x01
    2a86:	20 83       	st	Z, r18
    2a88:	6d c0       	rjmp	.+218    	; 0x2b64 <block_pick+0x748>
    2a8a:	ce 01       	movw	r24, r28
    2a8c:	87 5a       	subi	r24, 0xA7	; 167
    2a8e:	9f 4f       	sbci	r25, 0xFF	; 255
    2a90:	20 e0       	ldi	r18, 0x00	; 0
    2a92:	3f ef       	ldi	r19, 0xFF	; 255
    2a94:	4f e7       	ldi	r20, 0x7F	; 127
    2a96:	57 e4       	ldi	r21, 0x47	; 71
    2a98:	fc 01       	movw	r30, r24
    2a9a:	60 81       	ld	r22, Z
    2a9c:	71 81       	ldd	r23, Z+1	; 0x01
    2a9e:	82 81       	ldd	r24, Z+2	; 0x02
    2aa0:	93 81       	ldd	r25, Z+3	; 0x03
    2aa2:	0e 94 5c 21 	call	0x42b8	; 0x42b8 <__gesf2>
    2aa6:	18 16       	cp	r1, r24
    2aa8:	0c f0       	brlt	.+2      	; 0x2aac <block_pick+0x690>
    2aaa:	4a c0       	rjmp	.+148    	; 0x2b40 <block_pick+0x724>
    2aac:	ce 01       	movw	r24, r28
    2aae:	8b 5a       	subi	r24, 0xAB	; 171
    2ab0:	9f 4f       	sbci	r25, 0xFF	; 255
    2ab2:	20 e0       	ldi	r18, 0x00	; 0
    2ab4:	30 e0       	ldi	r19, 0x00	; 0
    2ab6:	40 e2       	ldi	r20, 0x20	; 32
    2ab8:	51 e4       	ldi	r21, 0x41	; 65
    2aba:	fc 01       	movw	r30, r24
    2abc:	60 81       	ld	r22, Z
    2abe:	71 81       	ldd	r23, Z+1	; 0x01
    2ac0:	82 81       	ldd	r24, Z+2	; 0x02
    2ac2:	93 81       	ldd	r25, Z+3	; 0x03
    2ac4:	0e 94 60 21 	call	0x42c0	; 0x42c0 <__mulsf3>
    2ac8:	dc 01       	movw	r26, r24
    2aca:	cb 01       	movw	r24, r22
    2acc:	8e 01       	movw	r16, r28
    2ace:	03 5a       	subi	r16, 0xA3	; 163
    2ad0:	1f 4f       	sbci	r17, 0xFF	; 255
    2ad2:	bc 01       	movw	r22, r24
    2ad4:	cd 01       	movw	r24, r26
    2ad6:	0e 94 7e 20 	call	0x40fc	; 0x40fc <__fixunssfsi>
    2ada:	dc 01       	movw	r26, r24
    2adc:	cb 01       	movw	r24, r22
    2ade:	f8 01       	movw	r30, r16
    2ae0:	91 83       	std	Z+1, r25	; 0x01
    2ae2:	80 83       	st	Z, r24
    2ae4:	24 c0       	rjmp	.+72     	; 0x2b2e <block_pick+0x712>
    2ae6:	ce 01       	movw	r24, r28
    2ae8:	81 5a       	subi	r24, 0xA1	; 161
    2aea:	9f 4f       	sbci	r25, 0xFF	; 255
    2aec:	20 e7       	ldi	r18, 0x70	; 112
    2aee:	31 e0       	ldi	r19, 0x01	; 1
    2af0:	fc 01       	movw	r30, r24
    2af2:	31 83       	std	Z+1, r19	; 0x01
    2af4:	20 83       	st	Z, r18
    2af6:	ce 01       	movw	r24, r28
    2af8:	81 5a       	subi	r24, 0xA1	; 161
    2afa:	9f 4f       	sbci	r25, 0xFF	; 255
    2afc:	fc 01       	movw	r30, r24
    2afe:	80 81       	ld	r24, Z
    2b00:	91 81       	ldd	r25, Z+1	; 0x01
    2b02:	01 97       	sbiw	r24, 0x01	; 1
    2b04:	f1 f7       	brne	.-4      	; 0x2b02 <block_pick+0x6e6>
    2b06:	9e 01       	movw	r18, r28
    2b08:	21 5a       	subi	r18, 0xA1	; 161
    2b0a:	3f 4f       	sbci	r19, 0xFF	; 255
    2b0c:	f9 01       	movw	r30, r18
    2b0e:	91 83       	std	Z+1, r25	; 0x01
    2b10:	80 83       	st	Z, r24
    2b12:	ce 01       	movw	r24, r28
    2b14:	83 5a       	subi	r24, 0xA3	; 163
    2b16:	9f 4f       	sbci	r25, 0xFF	; 255
    2b18:	9e 01       	movw	r18, r28
    2b1a:	23 5a       	subi	r18, 0xA3	; 163
    2b1c:	3f 4f       	sbci	r19, 0xFF	; 255
    2b1e:	f9 01       	movw	r30, r18
    2b20:	20 81       	ld	r18, Z
    2b22:	31 81       	ldd	r19, Z+1	; 0x01
    2b24:	21 50       	subi	r18, 0x01	; 1
    2b26:	31 09       	sbc	r19, r1
    2b28:	fc 01       	movw	r30, r24
    2b2a:	31 83       	std	Z+1, r19	; 0x01
    2b2c:	20 83       	st	Z, r18
    2b2e:	ce 01       	movw	r24, r28
    2b30:	83 5a       	subi	r24, 0xA3	; 163
    2b32:	9f 4f       	sbci	r25, 0xFF	; 255
    2b34:	fc 01       	movw	r30, r24
    2b36:	80 81       	ld	r24, Z
    2b38:	91 81       	ldd	r25, Z+1	; 0x01
    2b3a:	00 97       	sbiw	r24, 0x00	; 0
    2b3c:	a1 f6       	brne	.-88     	; 0x2ae6 <block_pick+0x6ca>
    2b3e:	2c c0       	rjmp	.+88     	; 0x2b98 <block_pick+0x77c>
    2b40:	8e 01       	movw	r16, r28
    2b42:	03 5a       	subi	r16, 0xA3	; 163
    2b44:	1f 4f       	sbci	r17, 0xFF	; 255
    2b46:	ce 01       	movw	r24, r28
    2b48:	87 5a       	subi	r24, 0xA7	; 167
    2b4a:	9f 4f       	sbci	r25, 0xFF	; 255
    2b4c:	fc 01       	movw	r30, r24
    2b4e:	60 81       	ld	r22, Z
    2b50:	71 81       	ldd	r23, Z+1	; 0x01
    2b52:	82 81       	ldd	r24, Z+2	; 0x02
    2b54:	93 81       	ldd	r25, Z+3	; 0x03
    2b56:	0e 94 7e 20 	call	0x40fc	; 0x40fc <__fixunssfsi>
    2b5a:	dc 01       	movw	r26, r24
    2b5c:	cb 01       	movw	r24, r22
    2b5e:	f8 01       	movw	r30, r16
    2b60:	91 83       	std	Z+1, r25	; 0x01
    2b62:	80 83       	st	Z, r24
    2b64:	ce 01       	movw	r24, r28
    2b66:	8f 59       	subi	r24, 0x9F	; 159
    2b68:	9f 4f       	sbci	r25, 0xFF	; 255
    2b6a:	9e 01       	movw	r18, r28
    2b6c:	23 5a       	subi	r18, 0xA3	; 163
    2b6e:	3f 4f       	sbci	r19, 0xFF	; 255
    2b70:	f9 01       	movw	r30, r18
    2b72:	20 81       	ld	r18, Z
    2b74:	31 81       	ldd	r19, Z+1	; 0x01
    2b76:	fc 01       	movw	r30, r24
    2b78:	31 83       	std	Z+1, r19	; 0x01
    2b7a:	20 83       	st	Z, r18
    2b7c:	ce 01       	movw	r24, r28
    2b7e:	8f 59       	subi	r24, 0x9F	; 159
    2b80:	9f 4f       	sbci	r25, 0xFF	; 255
    2b82:	fc 01       	movw	r30, r24
    2b84:	80 81       	ld	r24, Z
    2b86:	91 81       	ldd	r25, Z+1	; 0x01
    2b88:	01 97       	sbiw	r24, 0x01	; 1
    2b8a:	f1 f7       	brne	.-4      	; 0x2b88 <block_pick+0x76c>
    2b8c:	9e 01       	movw	r18, r28
    2b8e:	2f 59       	subi	r18, 0x9F	; 159
    2b90:	3f 4f       	sbci	r19, 0xFF	; 255
    2b92:	f9 01       	movw	r30, r18
    2b94:	91 83       	std	Z+1, r25	; 0x01
    2b96:	80 83       	st	Z, r24
    2b98:	92 da       	rcall	.-2780   	; 0x20be <stop>
    2b9a:	9e 01       	movw	r18, r28
    2b9c:	2d 59       	subi	r18, 0x9D	; 157
    2b9e:	3f 4f       	sbci	r19, 0xFF	; 255
    2ba0:	80 e0       	ldi	r24, 0x00	; 0
    2ba2:	90 e0       	ldi	r25, 0x00	; 0
    2ba4:	aa e7       	ldi	r26, 0x7A	; 122
    2ba6:	b4 e4       	ldi	r27, 0x44	; 68
    2ba8:	f9 01       	movw	r30, r18
    2baa:	80 83       	st	Z, r24
    2bac:	91 83       	std	Z+1, r25	; 0x01
    2bae:	a2 83       	std	Z+2, r26	; 0x02
    2bb0:	b3 83       	std	Z+3, r27	; 0x03
    2bb2:	8e 01       	movw	r16, r28
    2bb4:	09 59       	subi	r16, 0x99	; 153
    2bb6:	1f 4f       	sbci	r17, 0xFF	; 255
    2bb8:	ce 01       	movw	r24, r28
    2bba:	8d 59       	subi	r24, 0x9D	; 157
    2bbc:	9f 4f       	sbci	r25, 0xFF	; 255
    2bbe:	26 e6       	ldi	r18, 0x66	; 102
    2bc0:	36 e6       	ldi	r19, 0x66	; 102
    2bc2:	46 e6       	ldi	r20, 0x66	; 102
    2bc4:	55 e4       	ldi	r21, 0x45	; 69
    2bc6:	fc 01       	movw	r30, r24
    2bc8:	60 81       	ld	r22, Z
    2bca:	71 81       	ldd	r23, Z+1	; 0x01
    2bcc:	82 81       	ldd	r24, Z+2	; 0x02
    2bce:	93 81       	ldd	r25, Z+3	; 0x03
    2bd0:	0e 94 60 21 	call	0x42c0	; 0x42c0 <__mulsf3>
    2bd4:	dc 01       	movw	r26, r24
    2bd6:	cb 01       	movw	r24, r22
    2bd8:	f8 01       	movw	r30, r16
    2bda:	80 83       	st	Z, r24
    2bdc:	91 83       	std	Z+1, r25	; 0x01
    2bde:	a2 83       	std	Z+2, r26	; 0x02
    2be0:	b3 83       	std	Z+3, r27	; 0x03
    2be2:	ce 01       	movw	r24, r28
    2be4:	89 59       	subi	r24, 0x99	; 153
    2be6:	9f 4f       	sbci	r25, 0xFF	; 255
    2be8:	20 e0       	ldi	r18, 0x00	; 0
    2bea:	30 e0       	ldi	r19, 0x00	; 0
    2bec:	40 e8       	ldi	r20, 0x80	; 128
    2bee:	5f e3       	ldi	r21, 0x3F	; 63
    2bf0:	fc 01       	movw	r30, r24
    2bf2:	60 81       	ld	r22, Z
    2bf4:	71 81       	ldd	r23, Z+1	; 0x01
    2bf6:	82 81       	ldd	r24, Z+2	; 0x02
    2bf8:	93 81       	ldd	r25, Z+3	; 0x03
    2bfa:	0e 94 0d 20 	call	0x401a	; 0x401a <__cmpsf2>
    2bfe:	88 23       	and	r24, r24
    2c00:	4c f4       	brge	.+18     	; 0x2c14 <block_pick+0x7f8>
    2c02:	ce 01       	movw	r24, r28
    2c04:	85 59       	subi	r24, 0x95	; 149
    2c06:	9f 4f       	sbci	r25, 0xFF	; 255
    2c08:	21 e0       	ldi	r18, 0x01	; 1
    2c0a:	30 e0       	ldi	r19, 0x00	; 0
    2c0c:	fc 01       	movw	r30, r24
    2c0e:	31 83       	std	Z+1, r19	; 0x01
    2c10:	20 83       	st	Z, r18
    2c12:	6d c0       	rjmp	.+218    	; 0x2cee <block_pick+0x8d2>
    2c14:	ce 01       	movw	r24, r28
    2c16:	89 59       	subi	r24, 0x99	; 153
    2c18:	9f 4f       	sbci	r25, 0xFF	; 255
    2c1a:	20 e0       	ldi	r18, 0x00	; 0
    2c1c:	3f ef       	ldi	r19, 0xFF	; 255
    2c1e:	4f e7       	ldi	r20, 0x7F	; 127
    2c20:	57 e4       	ldi	r21, 0x47	; 71
    2c22:	fc 01       	movw	r30, r24
    2c24:	60 81       	ld	r22, Z
    2c26:	71 81       	ldd	r23, Z+1	; 0x01
    2c28:	82 81       	ldd	r24, Z+2	; 0x02
    2c2a:	93 81       	ldd	r25, Z+3	; 0x03
    2c2c:	0e 94 5c 21 	call	0x42b8	; 0x42b8 <__gesf2>
    2c30:	18 16       	cp	r1, r24
    2c32:	0c f0       	brlt	.+2      	; 0x2c36 <block_pick+0x81a>
    2c34:	4a c0       	rjmp	.+148    	; 0x2cca <block_pick+0x8ae>
    2c36:	ce 01       	movw	r24, r28
    2c38:	8d 59       	subi	r24, 0x9D	; 157
    2c3a:	9f 4f       	sbci	r25, 0xFF	; 255
    2c3c:	20 e0       	ldi	r18, 0x00	; 0
    2c3e:	30 e0       	ldi	r19, 0x00	; 0
    2c40:	40 e2       	ldi	r20, 0x20	; 32
    2c42:	51 e4       	ldi	r21, 0x41	; 65
    2c44:	fc 01       	movw	r30, r24
    2c46:	60 81       	ld	r22, Z
    2c48:	71 81       	ldd	r23, Z+1	; 0x01
    2c4a:	82 81       	ldd	r24, Z+2	; 0x02
    2c4c:	93 81       	ldd	r25, Z+3	; 0x03
    2c4e:	0e 94 60 21 	call	0x42c0	; 0x42c0 <__mulsf3>
    2c52:	dc 01       	movw	r26, r24
    2c54:	cb 01       	movw	r24, r22
    2c56:	8e 01       	movw	r16, r28
    2c58:	05 59       	subi	r16, 0x95	; 149
    2c5a:	1f 4f       	sbci	r17, 0xFF	; 255
    2c5c:	bc 01       	movw	r22, r24
    2c5e:	cd 01       	movw	r24, r26
    2c60:	0e 94 7e 20 	call	0x40fc	; 0x40fc <__fixunssfsi>
    2c64:	dc 01       	movw	r26, r24
    2c66:	cb 01       	movw	r24, r22
    2c68:	f8 01       	movw	r30, r16
    2c6a:	91 83       	std	Z+1, r25	; 0x01
    2c6c:	80 83       	st	Z, r24
    2c6e:	24 c0       	rjmp	.+72     	; 0x2cb8 <block_pick+0x89c>
    2c70:	ce 01       	movw	r24, r28
    2c72:	83 59       	subi	r24, 0x93	; 147
    2c74:	9f 4f       	sbci	r25, 0xFF	; 255
    2c76:	20 e7       	ldi	r18, 0x70	; 112
    2c78:	31 e0       	ldi	r19, 0x01	; 1
    2c7a:	fc 01       	movw	r30, r24
    2c7c:	31 83       	std	Z+1, r19	; 0x01
    2c7e:	20 83       	st	Z, r18
    2c80:	ce 01       	movw	r24, r28
    2c82:	83 59       	subi	r24, 0x93	; 147
    2c84:	9f 4f       	sbci	r25, 0xFF	; 255
    2c86:	fc 01       	movw	r30, r24
    2c88:	80 81       	ld	r24, Z
    2c8a:	91 81       	ldd	r25, Z+1	; 0x01
    2c8c:	01 97       	sbiw	r24, 0x01	; 1
    2c8e:	f1 f7       	brne	.-4      	; 0x2c8c <block_pick+0x870>
    2c90:	9e 01       	movw	r18, r28
    2c92:	23 59       	subi	r18, 0x93	; 147
    2c94:	3f 4f       	sbci	r19, 0xFF	; 255
    2c96:	f9 01       	movw	r30, r18
    2c98:	91 83       	std	Z+1, r25	; 0x01
    2c9a:	80 83       	st	Z, r24
    2c9c:	ce 01       	movw	r24, r28
    2c9e:	85 59       	subi	r24, 0x95	; 149
    2ca0:	9f 4f       	sbci	r25, 0xFF	; 255
    2ca2:	9e 01       	movw	r18, r28
    2ca4:	25 59       	subi	r18, 0x95	; 149
    2ca6:	3f 4f       	sbci	r19, 0xFF	; 255
    2ca8:	f9 01       	movw	r30, r18
    2caa:	20 81       	ld	r18, Z
    2cac:	31 81       	ldd	r19, Z+1	; 0x01
    2cae:	21 50       	subi	r18, 0x01	; 1
    2cb0:	31 09       	sbc	r19, r1
    2cb2:	fc 01       	movw	r30, r24
    2cb4:	31 83       	std	Z+1, r19	; 0x01
    2cb6:	20 83       	st	Z, r18
    2cb8:	ce 01       	movw	r24, r28
    2cba:	85 59       	subi	r24, 0x95	; 149
    2cbc:	9f 4f       	sbci	r25, 0xFF	; 255
    2cbe:	fc 01       	movw	r30, r24
    2cc0:	80 81       	ld	r24, Z
    2cc2:	91 81       	ldd	r25, Z+1	; 0x01
    2cc4:	00 97       	sbiw	r24, 0x00	; 0
    2cc6:	a1 f6       	brne	.-88     	; 0x2c70 <block_pick+0x854>
    2cc8:	2c c0       	rjmp	.+88     	; 0x2d22 <block_pick+0x906>
    2cca:	8e 01       	movw	r16, r28
    2ccc:	05 59       	subi	r16, 0x95	; 149
    2cce:	1f 4f       	sbci	r17, 0xFF	; 255
    2cd0:	ce 01       	movw	r24, r28
    2cd2:	89 59       	subi	r24, 0x99	; 153
    2cd4:	9f 4f       	sbci	r25, 0xFF	; 255
    2cd6:	fc 01       	movw	r30, r24
    2cd8:	60 81       	ld	r22, Z
    2cda:	71 81       	ldd	r23, Z+1	; 0x01
    2cdc:	82 81       	ldd	r24, Z+2	; 0x02
    2cde:	93 81       	ldd	r25, Z+3	; 0x03
    2ce0:	0e 94 7e 20 	call	0x40fc	; 0x40fc <__fixunssfsi>
    2ce4:	dc 01       	movw	r26, r24
    2ce6:	cb 01       	movw	r24, r22
    2ce8:	f8 01       	movw	r30, r16
    2cea:	91 83       	std	Z+1, r25	; 0x01
    2cec:	80 83       	st	Z, r24
    2cee:	ce 01       	movw	r24, r28
    2cf0:	81 59       	subi	r24, 0x91	; 145
    2cf2:	9f 4f       	sbci	r25, 0xFF	; 255
    2cf4:	9e 01       	movw	r18, r28
    2cf6:	25 59       	subi	r18, 0x95	; 149
    2cf8:	3f 4f       	sbci	r19, 0xFF	; 255
    2cfa:	f9 01       	movw	r30, r18
    2cfc:	20 81       	ld	r18, Z
    2cfe:	31 81       	ldd	r19, Z+1	; 0x01
    2d00:	fc 01       	movw	r30, r24
    2d02:	31 83       	std	Z+1, r19	; 0x01
    2d04:	20 83       	st	Z, r18
    2d06:	ce 01       	movw	r24, r28
    2d08:	81 59       	subi	r24, 0x91	; 145
    2d0a:	9f 4f       	sbci	r25, 0xFF	; 255
    2d0c:	fc 01       	movw	r30, r24
    2d0e:	80 81       	ld	r24, Z
    2d10:	91 81       	ldd	r25, Z+1	; 0x01
    2d12:	01 97       	sbiw	r24, 0x01	; 1
    2d14:	f1 f7       	brne	.-4      	; 0x2d12 <block_pick+0x8f6>
    2d16:	9e 01       	movw	r18, r28
    2d18:	21 59       	subi	r18, 0x91	; 145
    2d1a:	3f 4f       	sbci	r19, 0xFF	; 255
    2d1c:	f9 01       	movw	r30, r18
    2d1e:	91 83       	std	Z+1, r25	; 0x01
    2d20:	80 83       	st	Z, r24
    2d22:	81 e0       	ldi	r24, 0x01	; 1
    2d24:	0e 94 f4 0b 	call	0x17e8	; 0x17e8 <ADC_Conversion>
    2d28:	88 2f       	mov	r24, r24
    2d2a:	90 e0       	ldi	r25, 0x00	; 0
    2d2c:	9a 8b       	std	Y+18, r25	; 0x12
    2d2e:	89 8b       	std	Y+17, r24	; 0x11
    2d30:	83 e0       	ldi	r24, 0x03	; 3
    2d32:	0e 94 f4 0b 	call	0x17e8	; 0x17e8 <ADC_Conversion>
    2d36:	88 2f       	mov	r24, r24
    2d38:	90 e0       	ldi	r25, 0x00	; 0
    2d3a:	9c 8b       	std	Y+20, r25	; 0x14
    2d3c:	8b 8b       	std	Y+19, r24	; 0x13
    2d3e:	82 e0       	ldi	r24, 0x02	; 2
    2d40:	0e 94 f4 0b 	call	0x17e8	; 0x17e8 <ADC_Conversion>
    2d44:	88 2f       	mov	r24, r24
    2d46:	90 e0       	ldi	r25, 0x00	; 0
    2d48:	9e 8b       	std	Y+22, r25	; 0x16
    2d4a:	8d 8b       	std	Y+21, r24	; 0x15
    2d4c:	7d d5       	rcall	.+2810   	; 0x3848 <back_behav>
    2d4e:	80 91 02 02 	lds	r24, 0x0202
    2d52:	90 91 03 02 	lds	r25, 0x0203
    2d56:	9c 01       	movw	r18, r24
    2d58:	89 89       	ldd	r24, Y+17	; 0x11
    2d5a:	9a 89       	ldd	r25, Y+18	; 0x12
    2d5c:	28 17       	cp	r18, r24
    2d5e:	39 07       	cpc	r19, r25
    2d60:	08 f0       	brcs	.+2      	; 0x2d64 <block_pick+0x948>
    2d62:	e9 c0       	rjmp	.+466    	; 0x2f36 <block_pick+0xb1a>
    2d64:	80 91 04 02 	lds	r24, 0x0204
    2d68:	90 91 05 02 	lds	r25, 0x0205
    2d6c:	9c 01       	movw	r18, r24
    2d6e:	8d 89       	ldd	r24, Y+21	; 0x15
    2d70:	9e 89       	ldd	r25, Y+22	; 0x16
    2d72:	28 17       	cp	r18, r24
    2d74:	39 07       	cpc	r19, r25
    2d76:	08 f0       	brcs	.+2      	; 0x2d7a <block_pick+0x95e>
    2d78:	de c0       	rjmp	.+444    	; 0x2f36 <block_pick+0xb1a>
    2d7a:	80 91 02 02 	lds	r24, 0x0202
    2d7e:	90 91 03 02 	lds	r25, 0x0203
    2d82:	9c 01       	movw	r18, r24
    2d84:	8b 89       	ldd	r24, Y+19	; 0x13
    2d86:	9c 89       	ldd	r25, Y+20	; 0x14
    2d88:	28 17       	cp	r18, r24
    2d8a:	39 07       	cpc	r19, r25
    2d8c:	08 f0       	brcs	.+2      	; 0x2d90 <block_pick+0x974>
    2d8e:	d3 c0       	rjmp	.+422    	; 0x2f36 <block_pick+0xb1a>
    2d90:	6c e8       	ldi	r22, 0x8C	; 140
    2d92:	8c e8       	ldi	r24, 0x8C	; 140
    2d94:	0e 94 2d 0d 	call	0x1a5a	; 0x1a5a <velocity>
    2d98:	8e e1       	ldi	r24, 0x1E	; 30
    2d9a:	90 e0       	ldi	r25, 0x00	; 0
    2d9c:	79 da       	rcall	.-2830   	; 0x2290 <forward_mm>
    2d9e:	74 d6       	rcall	.+3304   	; 0x3a88 <turn_right>
    2da0:	8e d9       	rcall	.-3300   	; 0x20be <stop>
    2da2:	9e 01       	movw	r18, r28
    2da4:	2f 58       	subi	r18, 0x8F	; 143
    2da6:	3f 4f       	sbci	r19, 0xFF	; 255
    2da8:	80 e0       	ldi	r24, 0x00	; 0
    2daa:	90 e0       	ldi	r25, 0x00	; 0
    2dac:	aa ef       	ldi	r26, 0xFA	; 250
    2dae:	b3 e4       	ldi	r27, 0x43	; 67
    2db0:	f9 01       	movw	r30, r18
    2db2:	80 83       	st	Z, r24
    2db4:	91 83       	std	Z+1, r25	; 0x01
    2db6:	a2 83       	std	Z+2, r26	; 0x02
    2db8:	b3 83       	std	Z+3, r27	; 0x03
    2dba:	8e 01       	movw	r16, r28
    2dbc:	0b 58       	subi	r16, 0x8B	; 139
    2dbe:	1f 4f       	sbci	r17, 0xFF	; 255
    2dc0:	ce 01       	movw	r24, r28
    2dc2:	8f 58       	subi	r24, 0x8F	; 143
    2dc4:	9f 4f       	sbci	r25, 0xFF	; 255
    2dc6:	26 e6       	ldi	r18, 0x66	; 102
    2dc8:	36 e6       	ldi	r19, 0x66	; 102
    2dca:	46 e6       	ldi	r20, 0x66	; 102
    2dcc:	55 e4       	ldi	r21, 0x45	; 69
    2dce:	fc 01       	movw	r30, r24
    2dd0:	60 81       	ld	r22, Z
    2dd2:	71 81       	ldd	r23, Z+1	; 0x01
    2dd4:	82 81       	ldd	r24, Z+2	; 0x02
    2dd6:	93 81       	ldd	r25, Z+3	; 0x03
    2dd8:	0e 94 60 21 	call	0x42c0	; 0x42c0 <__mulsf3>
    2ddc:	dc 01       	movw	r26, r24
    2dde:	cb 01       	movw	r24, r22
    2de0:	f8 01       	movw	r30, r16
    2de2:	80 83       	st	Z, r24
    2de4:	91 83       	std	Z+1, r25	; 0x01
    2de6:	a2 83       	std	Z+2, r26	; 0x02
    2de8:	b3 83       	std	Z+3, r27	; 0x03
    2dea:	ce 01       	movw	r24, r28
    2dec:	8b 58       	subi	r24, 0x8B	; 139
    2dee:	9f 4f       	sbci	r25, 0xFF	; 255
    2df0:	20 e0       	ldi	r18, 0x00	; 0
    2df2:	30 e0       	ldi	r19, 0x00	; 0
    2df4:	40 e8       	ldi	r20, 0x80	; 128
    2df6:	5f e3       	ldi	r21, 0x3F	; 63
    2df8:	fc 01       	movw	r30, r24
    2dfa:	60 81       	ld	r22, Z
    2dfc:	71 81       	ldd	r23, Z+1	; 0x01
    2dfe:	82 81       	ldd	r24, Z+2	; 0x02
    2e00:	93 81       	ldd	r25, Z+3	; 0x03
    2e02:	0e 94 0d 20 	call	0x401a	; 0x401a <__cmpsf2>
    2e06:	88 23       	and	r24, r24
    2e08:	4c f4       	brge	.+18     	; 0x2e1c <block_pick+0xa00>
    2e0a:	ce 01       	movw	r24, r28
    2e0c:	87 58       	subi	r24, 0x87	; 135
    2e0e:	9f 4f       	sbci	r25, 0xFF	; 255
    2e10:	21 e0       	ldi	r18, 0x01	; 1
    2e12:	30 e0       	ldi	r19, 0x00	; 0
    2e14:	fc 01       	movw	r30, r24
    2e16:	31 83       	std	Z+1, r19	; 0x01
    2e18:	20 83       	st	Z, r18
    2e1a:	6d c0       	rjmp	.+218    	; 0x2ef6 <block_pick+0xada>
    2e1c:	ce 01       	movw	r24, r28
    2e1e:	8b 58       	subi	r24, 0x8B	; 139
    2e20:	9f 4f       	sbci	r25, 0xFF	; 255
    2e22:	20 e0       	ldi	r18, 0x00	; 0
    2e24:	3f ef       	ldi	r19, 0xFF	; 255
    2e26:	4f e7       	ldi	r20, 0x7F	; 127
    2e28:	57 e4       	ldi	r21, 0x47	; 71
    2e2a:	fc 01       	movw	r30, r24
    2e2c:	60 81       	ld	r22, Z
    2e2e:	71 81       	ldd	r23, Z+1	; 0x01
    2e30:	82 81       	ldd	r24, Z+2	; 0x02
    2e32:	93 81       	ldd	r25, Z+3	; 0x03
    2e34:	0e 94 5c 21 	call	0x42b8	; 0x42b8 <__gesf2>
    2e38:	18 16       	cp	r1, r24
    2e3a:	0c f0       	brlt	.+2      	; 0x2e3e <block_pick+0xa22>
    2e3c:	4a c0       	rjmp	.+148    	; 0x2ed2 <block_pick+0xab6>
    2e3e:	ce 01       	movw	r24, r28
    2e40:	8f 58       	subi	r24, 0x8F	; 143
    2e42:	9f 4f       	sbci	r25, 0xFF	; 255
    2e44:	20 e0       	ldi	r18, 0x00	; 0
    2e46:	30 e0       	ldi	r19, 0x00	; 0
    2e48:	40 e2       	ldi	r20, 0x20	; 32
    2e4a:	51 e4       	ldi	r21, 0x41	; 65
    2e4c:	fc 01       	movw	r30, r24
    2e4e:	60 81       	ld	r22, Z
    2e50:	71 81       	ldd	r23, Z+1	; 0x01
    2e52:	82 81       	ldd	r24, Z+2	; 0x02
    2e54:	93 81       	ldd	r25, Z+3	; 0x03
    2e56:	0e 94 60 21 	call	0x42c0	; 0x42c0 <__mulsf3>
    2e5a:	dc 01       	movw	r26, r24
    2e5c:	cb 01       	movw	r24, r22
    2e5e:	8e 01       	movw	r16, r28
    2e60:	07 58       	subi	r16, 0x87	; 135
    2e62:	1f 4f       	sbci	r17, 0xFF	; 255
    2e64:	bc 01       	movw	r22, r24
    2e66:	cd 01       	movw	r24, r26
    2e68:	0e 94 7e 20 	call	0x40fc	; 0x40fc <__fixunssfsi>
    2e6c:	dc 01       	movw	r26, r24
    2e6e:	cb 01       	movw	r24, r22
    2e70:	f8 01       	movw	r30, r16
    2e72:	91 83       	std	Z+1, r25	; 0x01
    2e74:	80 83       	st	Z, r24
    2e76:	24 c0       	rjmp	.+72     	; 0x2ec0 <block_pick+0xaa4>
    2e78:	ce 01       	movw	r24, r28
    2e7a:	85 58       	subi	r24, 0x85	; 133
    2e7c:	9f 4f       	sbci	r25, 0xFF	; 255
    2e7e:	20 e7       	ldi	r18, 0x70	; 112
    2e80:	31 e0       	ldi	r19, 0x01	; 1
    2e82:	fc 01       	movw	r30, r24
    2e84:	31 83       	std	Z+1, r19	; 0x01
    2e86:	20 83       	st	Z, r18
    2e88:	ce 01       	movw	r24, r28
    2e8a:	85 58       	subi	r24, 0x85	; 133
    2e8c:	9f 4f       	sbci	r25, 0xFF	; 255
    2e8e:	fc 01       	movw	r30, r24
    2e90:	80 81       	ld	r24, Z
    2e92:	91 81       	ldd	r25, Z+1	; 0x01
    2e94:	01 97       	sbiw	r24, 0x01	; 1
    2e96:	f1 f7       	brne	.-4      	; 0x2e94 <block_pick+0xa78>
    2e98:	9e 01       	movw	r18, r28
    2e9a:	25 58       	subi	r18, 0x85	; 133
    2e9c:	3f 4f       	sbci	r19, 0xFF	; 255
    2e9e:	f9 01       	movw	r30, r18
    2ea0:	91 83       	std	Z+1, r25	; 0x01
    2ea2:	80 83       	st	Z, r24
    2ea4:	ce 01       	movw	r24, r28
    2ea6:	87 58       	subi	r24, 0x87	; 135
    2ea8:	9f 4f       	sbci	r25, 0xFF	; 255
    2eaa:	9e 01       	movw	r18, r28
    2eac:	27 58       	subi	r18, 0x87	; 135
    2eae:	3f 4f       	sbci	r19, 0xFF	; 255
    2eb0:	f9 01       	movw	r30, r18
    2eb2:	20 81       	ld	r18, Z
    2eb4:	31 81       	ldd	r19, Z+1	; 0x01
    2eb6:	21 50       	subi	r18, 0x01	; 1
    2eb8:	31 09       	sbc	r19, r1
    2eba:	fc 01       	movw	r30, r24
    2ebc:	31 83       	std	Z+1, r19	; 0x01
    2ebe:	20 83       	st	Z, r18
    2ec0:	ce 01       	movw	r24, r28
    2ec2:	87 58       	subi	r24, 0x87	; 135
    2ec4:	9f 4f       	sbci	r25, 0xFF	; 255
    2ec6:	fc 01       	movw	r30, r24
    2ec8:	80 81       	ld	r24, Z
    2eca:	91 81       	ldd	r25, Z+1	; 0x01
    2ecc:	00 97       	sbiw	r24, 0x00	; 0
    2ece:	a1 f6       	brne	.-88     	; 0x2e78 <block_pick+0xa5c>
    2ed0:	2c c0       	rjmp	.+88     	; 0x2f2a <block_pick+0xb0e>
    2ed2:	8e 01       	movw	r16, r28
    2ed4:	07 58       	subi	r16, 0x87	; 135
    2ed6:	1f 4f       	sbci	r17, 0xFF	; 255
    2ed8:	ce 01       	movw	r24, r28
    2eda:	8b 58       	subi	r24, 0x8B	; 139
    2edc:	9f 4f       	sbci	r25, 0xFF	; 255
    2ede:	fc 01       	movw	r30, r24
    2ee0:	60 81       	ld	r22, Z
    2ee2:	71 81       	ldd	r23, Z+1	; 0x01
    2ee4:	82 81       	ldd	r24, Z+2	; 0x02
    2ee6:	93 81       	ldd	r25, Z+3	; 0x03
    2ee8:	0e 94 7e 20 	call	0x40fc	; 0x40fc <__fixunssfsi>
    2eec:	dc 01       	movw	r26, r24
    2eee:	cb 01       	movw	r24, r22
    2ef0:	f8 01       	movw	r30, r16
    2ef2:	91 83       	std	Z+1, r25	; 0x01
    2ef4:	80 83       	st	Z, r24
    2ef6:	ce 01       	movw	r24, r28
    2ef8:	83 58       	subi	r24, 0x83	; 131
    2efa:	9f 4f       	sbci	r25, 0xFF	; 255
    2efc:	9e 01       	movw	r18, r28
    2efe:	27 58       	subi	r18, 0x87	; 135
    2f00:	3f 4f       	sbci	r19, 0xFF	; 255
    2f02:	f9 01       	movw	r30, r18
    2f04:	20 81       	ld	r18, Z
    2f06:	31 81       	ldd	r19, Z+1	; 0x01
    2f08:	fc 01       	movw	r30, r24
    2f0a:	31 83       	std	Z+1, r19	; 0x01
    2f0c:	20 83       	st	Z, r18
    2f0e:	ce 01       	movw	r24, r28
    2f10:	83 58       	subi	r24, 0x83	; 131
    2f12:	9f 4f       	sbci	r25, 0xFF	; 255
    2f14:	fc 01       	movw	r30, r24
    2f16:	80 81       	ld	r24, Z
    2f18:	91 81       	ldd	r25, Z+1	; 0x01
    2f1a:	01 97       	sbiw	r24, 0x01	; 1
    2f1c:	f1 f7       	brne	.-4      	; 0x2f1a <block_pick+0xafe>
    2f1e:	9e 01       	movw	r18, r28
    2f20:	23 58       	subi	r18, 0x83	; 131
    2f22:	3f 4f       	sbci	r19, 0xFF	; 255
    2f24:	f9 01       	movw	r30, r18
    2f26:	91 83       	std	Z+1, r25	; 0x01
    2f28:	80 83       	st	Z, r24
    2f2a:	82 e0       	ldi	r24, 0x02	; 2
    2f2c:	90 e0       	ldi	r25, 0x00	; 0
    2f2e:	9a 83       	std	Y+2, r25	; 0x02
    2f30:	89 83       	std	Y+1, r24	; 0x01
    2f32:	00 00       	nop
    2f34:	0e c0       	rjmp	.+28     	; 0x2f52 <block_pick+0xb36>
    2f36:	f5 ce       	rjmp	.-534    	; 0x2d22 <block_pick+0x906>
    2f38:	80 91 00 02 	lds	r24, 0x0200
    2f3c:	90 91 01 02 	lds	r25, 0x0201
    2f40:	89 35       	cpi	r24, 0x59	; 89
    2f42:	91 05       	cpc	r25, r1
    2f44:	30 f4       	brcc	.+12     	; 0x2f52 <block_pick+0xb36>
    2f46:	6a e5       	ldi	r22, 0x5A	; 90
    2f48:	8a e5       	ldi	r24, 0x5A	; 90
    2f4a:	0e 94 2d 0d 	call	0x1a5a	; 0x1a5a <velocity>
    2f4e:	9c d8       	rcall	.-3784   	; 0x2088 <back>
    2f50:	68 c4       	rjmp	.+2256   	; 0x3822 <block_pick+0x1406>
    2f52:	67 c4       	rjmp	.+2254   	; 0x3822 <block_pick+0x1406>
    2f54:	6c e8       	ldi	r22, 0x8C	; 140
    2f56:	8c e8       	ldi	r24, 0x8C	; 140
    2f58:	0e 94 2d 0d 	call	0x1a5a	; 0x1a5a <velocity>
    2f5c:	82 ed       	ldi	r24, 0xD2	; 210
    2f5e:	90 e0       	ldi	r25, 0x00	; 0
    2f60:	b9 d9       	rcall	.-3214   	; 0x22d4 <right_degrees>
    2f62:	8f e0       	ldi	r24, 0x0F	; 15
    2f64:	90 e0       	ldi	r25, 0x00	; 0
    2f66:	a5 d9       	rcall	.-3254   	; 0x22b2 <left_degrees>
    2f68:	aa d8       	rcall	.-3756   	; 0x20be <stop>
    2f6a:	9e 01       	movw	r18, r28
    2f6c:	21 58       	subi	r18, 0x81	; 129
    2f6e:	3f 4f       	sbci	r19, 0xFF	; 255
    2f70:	80 e0       	ldi	r24, 0x00	; 0
    2f72:	90 e0       	ldi	r25, 0x00	; 0
    2f74:	aa ef       	ldi	r26, 0xFA	; 250
    2f76:	b3 e4       	ldi	r27, 0x43	; 67
    2f78:	f9 01       	movw	r30, r18
    2f7a:	80 83       	st	Z, r24
    2f7c:	91 83       	std	Z+1, r25	; 0x01
    2f7e:	a2 83       	std	Z+2, r26	; 0x02
    2f80:	b3 83       	std	Z+3, r27	; 0x03
    2f82:	8e 01       	movw	r16, r28
    2f84:	0d 57       	subi	r16, 0x7D	; 125
    2f86:	1f 4f       	sbci	r17, 0xFF	; 255
    2f88:	ce 01       	movw	r24, r28
    2f8a:	81 58       	subi	r24, 0x81	; 129
    2f8c:	9f 4f       	sbci	r25, 0xFF	; 255
    2f8e:	26 e6       	ldi	r18, 0x66	; 102
    2f90:	36 e6       	ldi	r19, 0x66	; 102
    2f92:	46 e6       	ldi	r20, 0x66	; 102
    2f94:	55 e4       	ldi	r21, 0x45	; 69
    2f96:	fc 01       	movw	r30, r24
    2f98:	60 81       	ld	r22, Z
    2f9a:	71 81       	ldd	r23, Z+1	; 0x01
    2f9c:	82 81       	ldd	r24, Z+2	; 0x02
    2f9e:	93 81       	ldd	r25, Z+3	; 0x03
    2fa0:	0e 94 60 21 	call	0x42c0	; 0x42c0 <__mulsf3>
    2fa4:	dc 01       	movw	r26, r24
    2fa6:	cb 01       	movw	r24, r22
    2fa8:	f8 01       	movw	r30, r16
    2faa:	80 83       	st	Z, r24
    2fac:	91 83       	std	Z+1, r25	; 0x01
    2fae:	a2 83       	std	Z+2, r26	; 0x02
    2fb0:	b3 83       	std	Z+3, r27	; 0x03
    2fb2:	ce 01       	movw	r24, r28
    2fb4:	8d 57       	subi	r24, 0x7D	; 125
    2fb6:	9f 4f       	sbci	r25, 0xFF	; 255
    2fb8:	20 e0       	ldi	r18, 0x00	; 0
    2fba:	30 e0       	ldi	r19, 0x00	; 0
    2fbc:	40 e8       	ldi	r20, 0x80	; 128
    2fbe:	5f e3       	ldi	r21, 0x3F	; 63
    2fc0:	fc 01       	movw	r30, r24
    2fc2:	60 81       	ld	r22, Z
    2fc4:	71 81       	ldd	r23, Z+1	; 0x01
    2fc6:	82 81       	ldd	r24, Z+2	; 0x02
    2fc8:	93 81       	ldd	r25, Z+3	; 0x03
    2fca:	0e 94 0d 20 	call	0x401a	; 0x401a <__cmpsf2>
    2fce:	88 23       	and	r24, r24
    2fd0:	4c f4       	brge	.+18     	; 0x2fe4 <block_pick+0xbc8>
    2fd2:	ce 01       	movw	r24, r28
    2fd4:	89 57       	subi	r24, 0x79	; 121
    2fd6:	9f 4f       	sbci	r25, 0xFF	; 255
    2fd8:	21 e0       	ldi	r18, 0x01	; 1
    2fda:	30 e0       	ldi	r19, 0x00	; 0
    2fdc:	fc 01       	movw	r30, r24
    2fde:	31 83       	std	Z+1, r19	; 0x01
    2fe0:	20 83       	st	Z, r18
    2fe2:	6d c0       	rjmp	.+218    	; 0x30be <block_pick+0xca2>
    2fe4:	ce 01       	movw	r24, r28
    2fe6:	8d 57       	subi	r24, 0x7D	; 125
    2fe8:	9f 4f       	sbci	r25, 0xFF	; 255
    2fea:	20 e0       	ldi	r18, 0x00	; 0
    2fec:	3f ef       	ldi	r19, 0xFF	; 255
    2fee:	4f e7       	ldi	r20, 0x7F	; 127
    2ff0:	57 e4       	ldi	r21, 0x47	; 71
    2ff2:	fc 01       	movw	r30, r24
    2ff4:	60 81       	ld	r22, Z
    2ff6:	71 81       	ldd	r23, Z+1	; 0x01
    2ff8:	82 81       	ldd	r24, Z+2	; 0x02
    2ffa:	93 81       	ldd	r25, Z+3	; 0x03
    2ffc:	0e 94 5c 21 	call	0x42b8	; 0x42b8 <__gesf2>
    3000:	18 16       	cp	r1, r24
    3002:	0c f0       	brlt	.+2      	; 0x3006 <block_pick+0xbea>
    3004:	4a c0       	rjmp	.+148    	; 0x309a <block_pick+0xc7e>
    3006:	ce 01       	movw	r24, r28
    3008:	81 58       	subi	r24, 0x81	; 129
    300a:	9f 4f       	sbci	r25, 0xFF	; 255
    300c:	20 e0       	ldi	r18, 0x00	; 0
    300e:	30 e0       	ldi	r19, 0x00	; 0
    3010:	40 e2       	ldi	r20, 0x20	; 32
    3012:	51 e4       	ldi	r21, 0x41	; 65
    3014:	fc 01       	movw	r30, r24
    3016:	60 81       	ld	r22, Z
    3018:	71 81       	ldd	r23, Z+1	; 0x01
    301a:	82 81       	ldd	r24, Z+2	; 0x02
    301c:	93 81       	ldd	r25, Z+3	; 0x03
    301e:	0e 94 60 21 	call	0x42c0	; 0x42c0 <__mulsf3>
    3022:	dc 01       	movw	r26, r24
    3024:	cb 01       	movw	r24, r22
    3026:	8e 01       	movw	r16, r28
    3028:	09 57       	subi	r16, 0x79	; 121
    302a:	1f 4f       	sbci	r17, 0xFF	; 255
    302c:	bc 01       	movw	r22, r24
    302e:	cd 01       	movw	r24, r26
    3030:	0e 94 7e 20 	call	0x40fc	; 0x40fc <__fixunssfsi>
    3034:	dc 01       	movw	r26, r24
    3036:	cb 01       	movw	r24, r22
    3038:	f8 01       	movw	r30, r16
    303a:	91 83       	std	Z+1, r25	; 0x01
    303c:	80 83       	st	Z, r24
    303e:	24 c0       	rjmp	.+72     	; 0x3088 <block_pick+0xc6c>
    3040:	ce 01       	movw	r24, r28
    3042:	87 57       	subi	r24, 0x77	; 119
    3044:	9f 4f       	sbci	r25, 0xFF	; 255
    3046:	20 e7       	ldi	r18, 0x70	; 112
    3048:	31 e0       	ldi	r19, 0x01	; 1
    304a:	fc 01       	movw	r30, r24
    304c:	31 83       	std	Z+1, r19	; 0x01
    304e:	20 83       	st	Z, r18
    3050:	ce 01       	movw	r24, r28
    3052:	87 57       	subi	r24, 0x77	; 119
    3054:	9f 4f       	sbci	r25, 0xFF	; 255
    3056:	fc 01       	movw	r30, r24
    3058:	80 81       	ld	r24, Z
    305a:	91 81       	ldd	r25, Z+1	; 0x01
    305c:	01 97       	sbiw	r24, 0x01	; 1
    305e:	f1 f7       	brne	.-4      	; 0x305c <block_pick+0xc40>
    3060:	9e 01       	movw	r18, r28
    3062:	27 57       	subi	r18, 0x77	; 119
    3064:	3f 4f       	sbci	r19, 0xFF	; 255
    3066:	f9 01       	movw	r30, r18
    3068:	91 83       	std	Z+1, r25	; 0x01
    306a:	80 83       	st	Z, r24
    306c:	ce 01       	movw	r24, r28
    306e:	89 57       	subi	r24, 0x79	; 121
    3070:	9f 4f       	sbci	r25, 0xFF	; 255
    3072:	9e 01       	movw	r18, r28
    3074:	29 57       	subi	r18, 0x79	; 121
    3076:	3f 4f       	sbci	r19, 0xFF	; 255
    3078:	f9 01       	movw	r30, r18
    307a:	20 81       	ld	r18, Z
    307c:	31 81       	ldd	r19, Z+1	; 0x01
    307e:	21 50       	subi	r18, 0x01	; 1
    3080:	31 09       	sbc	r19, r1
    3082:	fc 01       	movw	r30, r24
    3084:	31 83       	std	Z+1, r19	; 0x01
    3086:	20 83       	st	Z, r18
    3088:	ce 01       	movw	r24, r28
    308a:	89 57       	subi	r24, 0x79	; 121
    308c:	9f 4f       	sbci	r25, 0xFF	; 255
    308e:	fc 01       	movw	r30, r24
    3090:	80 81       	ld	r24, Z
    3092:	91 81       	ldd	r25, Z+1	; 0x01
    3094:	00 97       	sbiw	r24, 0x00	; 0
    3096:	a1 f6       	brne	.-88     	; 0x3040 <block_pick+0xc24>
    3098:	be c3       	rjmp	.+1916   	; 0x3816 <block_pick+0x13fa>
    309a:	8e 01       	movw	r16, r28
    309c:	09 57       	subi	r16, 0x79	; 121
    309e:	1f 4f       	sbci	r17, 0xFF	; 255
    30a0:	ce 01       	movw	r24, r28
    30a2:	8d 57       	subi	r24, 0x7D	; 125
    30a4:	9f 4f       	sbci	r25, 0xFF	; 255
    30a6:	fc 01       	movw	r30, r24
    30a8:	60 81       	ld	r22, Z
    30aa:	71 81       	ldd	r23, Z+1	; 0x01
    30ac:	82 81       	ldd	r24, Z+2	; 0x02
    30ae:	93 81       	ldd	r25, Z+3	; 0x03
    30b0:	0e 94 7e 20 	call	0x40fc	; 0x40fc <__fixunssfsi>
    30b4:	dc 01       	movw	r26, r24
    30b6:	cb 01       	movw	r24, r22
    30b8:	f8 01       	movw	r30, r16
    30ba:	91 83       	std	Z+1, r25	; 0x01
    30bc:	80 83       	st	Z, r24
    30be:	ce 01       	movw	r24, r28
    30c0:	85 57       	subi	r24, 0x75	; 117
    30c2:	9f 4f       	sbci	r25, 0xFF	; 255
    30c4:	9e 01       	movw	r18, r28
    30c6:	29 57       	subi	r18, 0x79	; 121
    30c8:	3f 4f       	sbci	r19, 0xFF	; 255
    30ca:	f9 01       	movw	r30, r18
    30cc:	20 81       	ld	r18, Z
    30ce:	31 81       	ldd	r19, Z+1	; 0x01
    30d0:	fc 01       	movw	r30, r24
    30d2:	31 83       	std	Z+1, r19	; 0x01
    30d4:	20 83       	st	Z, r18
    30d6:	ce 01       	movw	r24, r28
    30d8:	85 57       	subi	r24, 0x75	; 117
    30da:	9f 4f       	sbci	r25, 0xFF	; 255
    30dc:	fc 01       	movw	r30, r24
    30de:	80 81       	ld	r24, Z
    30e0:	91 81       	ldd	r25, Z+1	; 0x01
    30e2:	01 97       	sbiw	r24, 0x01	; 1
    30e4:	f1 f7       	brne	.-4      	; 0x30e2 <block_pick+0xcc6>
    30e6:	9e 01       	movw	r18, r28
    30e8:	25 57       	subi	r18, 0x75	; 117
    30ea:	3f 4f       	sbci	r19, 0xFF	; 255
    30ec:	f9 01       	movw	r30, r18
    30ee:	91 83       	std	Z+1, r25	; 0x01
    30f0:	80 83       	st	Z, r24
    30f2:	91 c3       	rjmp	.+1826   	; 0x3816 <block_pick+0x13fa>
    30f4:	89 e0       	ldi	r24, 0x09	; 9
    30f6:	0e 94 f4 0b 	call	0x17e8	; 0x17e8 <ADC_Conversion>
    30fa:	80 93 1c 02 	sts	0x021C, r24
    30fe:	80 91 1c 02 	lds	r24, 0x021C
    3102:	0e 94 38 0c 	call	0x1870	; 0x1870 <Sharp_GP2D12_estimation>
    3106:	90 93 01 02 	sts	0x0201, r25
    310a:	80 93 00 02 	sts	0x0200, r24
    310e:	80 91 00 02 	lds	r24, 0x0200
    3112:	90 91 01 02 	lds	r25, 0x0201
    3116:	23 e0       	ldi	r18, 0x03	; 3
    3118:	30 e0       	ldi	r19, 0x00	; 0
    311a:	ac 01       	movw	r20, r24
    311c:	6e e0       	ldi	r22, 0x0E	; 14
    311e:	82 e0       	ldi	r24, 0x02	; 2
    3120:	0e 94 26 0a 	call	0x144c	; 0x144c <lcd_print>
    3124:	80 91 00 02 	lds	r24, 0x0200
    3128:	90 91 01 02 	lds	r25, 0x0201
    312c:	85 36       	cpi	r24, 0x65	; 101
    312e:	91 05       	cpc	r25, r1
    3130:	38 f0       	brcs	.+14     	; 0x3140 <block_pick+0xd24>
    3132:	6a e5       	ldi	r22, 0x5A	; 90
    3134:	8a e5       	ldi	r24, 0x5A	; 90
    3136:	0e 94 2d 0d 	call	0x1a5a	; 0x1a5a <velocity>
    313a:	0e 94 3b 10 	call	0x2076	; 0x2076 <forward>
    313e:	6b c3       	rjmp	.+1750   	; 0x3816 <block_pick+0x13fa>
    3140:	80 91 00 02 	lds	r24, 0x0200
    3144:	90 91 01 02 	lds	r25, 0x0201
    3148:	8b 35       	cpi	r24, 0x5B	; 91
    314a:	91 05       	cpc	r25, r1
    314c:	08 f4       	brcc	.+2      	; 0x3150 <block_pick+0xd34>
    314e:	56 c3       	rjmp	.+1708   	; 0x37fc <block_pick+0x13e0>
    3150:	80 91 00 02 	lds	r24, 0x0200
    3154:	90 91 01 02 	lds	r25, 0x0201
    3158:	83 36       	cpi	r24, 0x63	; 99
    315a:	91 05       	cpc	r25, r1
    315c:	08 f0       	brcs	.+2      	; 0x3160 <block_pick+0xd44>
    315e:	4e c3       	rjmp	.+1692   	; 0x37fc <block_pick+0x13e0>
    3160:	0e 94 5f 10 	call	0x20be	; 0x20be <stop>
    3164:	9e 01       	movw	r18, r28
    3166:	23 57       	subi	r18, 0x73	; 115
    3168:	3f 4f       	sbci	r19, 0xFF	; 255
    316a:	80 e0       	ldi	r24, 0x00	; 0
    316c:	90 e0       	ldi	r25, 0x00	; 0
    316e:	aa e7       	ldi	r26, 0x7A	; 122
    3170:	b4 e4       	ldi	r27, 0x44	; 68
    3172:	f9 01       	movw	r30, r18
    3174:	80 83       	st	Z, r24
    3176:	91 83       	std	Z+1, r25	; 0x01
    3178:	a2 83       	std	Z+2, r26	; 0x02
    317a:	b3 83       	std	Z+3, r27	; 0x03
    317c:	8e 01       	movw	r16, r28
    317e:	0f 56       	subi	r16, 0x6F	; 111
    3180:	1f 4f       	sbci	r17, 0xFF	; 255
    3182:	ce 01       	movw	r24, r28
    3184:	83 57       	subi	r24, 0x73	; 115
    3186:	9f 4f       	sbci	r25, 0xFF	; 255
    3188:	26 e6       	ldi	r18, 0x66	; 102
    318a:	36 e6       	ldi	r19, 0x66	; 102
    318c:	46 e6       	ldi	r20, 0x66	; 102
    318e:	55 e4       	ldi	r21, 0x45	; 69
    3190:	fc 01       	movw	r30, r24
    3192:	60 81       	ld	r22, Z
    3194:	71 81       	ldd	r23, Z+1	; 0x01
    3196:	82 81       	ldd	r24, Z+2	; 0x02
    3198:	93 81       	ldd	r25, Z+3	; 0x03
    319a:	0e 94 60 21 	call	0x42c0	; 0x42c0 <__mulsf3>
    319e:	dc 01       	movw	r26, r24
    31a0:	cb 01       	movw	r24, r22
    31a2:	f8 01       	movw	r30, r16
    31a4:	80 83       	st	Z, r24
    31a6:	91 83       	std	Z+1, r25	; 0x01
    31a8:	a2 83       	std	Z+2, r26	; 0x02
    31aa:	b3 83       	std	Z+3, r27	; 0x03
    31ac:	ce 01       	movw	r24, r28
    31ae:	8f 56       	subi	r24, 0x6F	; 111
    31b0:	9f 4f       	sbci	r25, 0xFF	; 255
    31b2:	20 e0       	ldi	r18, 0x00	; 0
    31b4:	30 e0       	ldi	r19, 0x00	; 0
    31b6:	40 e8       	ldi	r20, 0x80	; 128
    31b8:	5f e3       	ldi	r21, 0x3F	; 63
    31ba:	fc 01       	movw	r30, r24
    31bc:	60 81       	ld	r22, Z
    31be:	71 81       	ldd	r23, Z+1	; 0x01
    31c0:	82 81       	ldd	r24, Z+2	; 0x02
    31c2:	93 81       	ldd	r25, Z+3	; 0x03
    31c4:	2a d7       	rcall	.+3668   	; 0x401a <__cmpsf2>
    31c6:	88 23       	and	r24, r24
    31c8:	4c f4       	brge	.+18     	; 0x31dc <block_pick+0xdc0>
    31ca:	ce 01       	movw	r24, r28
    31cc:	8b 56       	subi	r24, 0x6B	; 107
    31ce:	9f 4f       	sbci	r25, 0xFF	; 255
    31d0:	21 e0       	ldi	r18, 0x01	; 1
    31d2:	30 e0       	ldi	r19, 0x00	; 0
    31d4:	fc 01       	movw	r30, r24
    31d6:	31 83       	std	Z+1, r19	; 0x01
    31d8:	20 83       	st	Z, r18
    31da:	6b c0       	rjmp	.+214    	; 0x32b2 <block_pick+0xe96>
    31dc:	ce 01       	movw	r24, r28
    31de:	8f 56       	subi	r24, 0x6F	; 111
    31e0:	9f 4f       	sbci	r25, 0xFF	; 255
    31e2:	20 e0       	ldi	r18, 0x00	; 0
    31e4:	3f ef       	ldi	r19, 0xFF	; 255
    31e6:	4f e7       	ldi	r20, 0x7F	; 127
    31e8:	57 e4       	ldi	r21, 0x47	; 71
    31ea:	fc 01       	movw	r30, r24
    31ec:	60 81       	ld	r22, Z
    31ee:	71 81       	ldd	r23, Z+1	; 0x01
    31f0:	82 81       	ldd	r24, Z+2	; 0x02
    31f2:	93 81       	ldd	r25, Z+3	; 0x03
    31f4:	0e 94 5c 21 	call	0x42b8	; 0x42b8 <__gesf2>
    31f8:	18 16       	cp	r1, r24
    31fa:	0c f0       	brlt	.+2      	; 0x31fe <block_pick+0xde2>
    31fc:	49 c0       	rjmp	.+146    	; 0x3290 <block_pick+0xe74>
    31fe:	ce 01       	movw	r24, r28
    3200:	83 57       	subi	r24, 0x73	; 115
    3202:	9f 4f       	sbci	r25, 0xFF	; 255
    3204:	20 e0       	ldi	r18, 0x00	; 0
    3206:	30 e0       	ldi	r19, 0x00	; 0
    3208:	40 e2       	ldi	r20, 0x20	; 32
    320a:	51 e4       	ldi	r21, 0x41	; 65
    320c:	fc 01       	movw	r30, r24
    320e:	60 81       	ld	r22, Z
    3210:	71 81       	ldd	r23, Z+1	; 0x01
    3212:	82 81       	ldd	r24, Z+2	; 0x02
    3214:	93 81       	ldd	r25, Z+3	; 0x03
    3216:	0e 94 60 21 	call	0x42c0	; 0x42c0 <__mulsf3>
    321a:	dc 01       	movw	r26, r24
    321c:	cb 01       	movw	r24, r22
    321e:	8e 01       	movw	r16, r28
    3220:	0b 56       	subi	r16, 0x6B	; 107
    3222:	1f 4f       	sbci	r17, 0xFF	; 255
    3224:	bc 01       	movw	r22, r24
    3226:	cd 01       	movw	r24, r26
    3228:	69 d7       	rcall	.+3794   	; 0x40fc <__fixunssfsi>
    322a:	dc 01       	movw	r26, r24
    322c:	cb 01       	movw	r24, r22
    322e:	f8 01       	movw	r30, r16
    3230:	91 83       	std	Z+1, r25	; 0x01
    3232:	80 83       	st	Z, r24
    3234:	24 c0       	rjmp	.+72     	; 0x327e <block_pick+0xe62>
    3236:	ce 01       	movw	r24, r28
    3238:	89 56       	subi	r24, 0x69	; 105
    323a:	9f 4f       	sbci	r25, 0xFF	; 255
    323c:	20 e7       	ldi	r18, 0x70	; 112
    323e:	31 e0       	ldi	r19, 0x01	; 1
    3240:	fc 01       	movw	r30, r24
    3242:	31 83       	std	Z+1, r19	; 0x01
    3244:	20 83       	st	Z, r18
    3246:	ce 01       	movw	r24, r28
    3248:	89 56       	subi	r24, 0x69	; 105
    324a:	9f 4f       	sbci	r25, 0xFF	; 255
    324c:	fc 01       	movw	r30, r24
    324e:	80 81       	ld	r24, Z
    3250:	91 81       	ldd	r25, Z+1	; 0x01
    3252:	01 97       	sbiw	r24, 0x01	; 1
    3254:	f1 f7       	brne	.-4      	; 0x3252 <block_pick+0xe36>
    3256:	9e 01       	movw	r18, r28
    3258:	29 56       	subi	r18, 0x69	; 105
    325a:	3f 4f       	sbci	r19, 0xFF	; 255
    325c:	f9 01       	movw	r30, r18
    325e:	91 83       	std	Z+1, r25	; 0x01
    3260:	80 83       	st	Z, r24
    3262:	ce 01       	movw	r24, r28
    3264:	8b 56       	subi	r24, 0x6B	; 107
    3266:	9f 4f       	sbci	r25, 0xFF	; 255
    3268:	9e 01       	movw	r18, r28
    326a:	2b 56       	subi	r18, 0x6B	; 107
    326c:	3f 4f       	sbci	r19, 0xFF	; 255
    326e:	f9 01       	movw	r30, r18
    3270:	20 81       	ld	r18, Z
    3272:	31 81       	ldd	r19, Z+1	; 0x01
    3274:	21 50       	subi	r18, 0x01	; 1
    3276:	31 09       	sbc	r19, r1
    3278:	fc 01       	movw	r30, r24
    327a:	31 83       	std	Z+1, r19	; 0x01
    327c:	20 83       	st	Z, r18
    327e:	ce 01       	movw	r24, r28
    3280:	8b 56       	subi	r24, 0x6B	; 107
    3282:	9f 4f       	sbci	r25, 0xFF	; 255
    3284:	fc 01       	movw	r30, r24
    3286:	80 81       	ld	r24, Z
    3288:	91 81       	ldd	r25, Z+1	; 0x01
    328a:	00 97       	sbiw	r24, 0x00	; 0
    328c:	a1 f6       	brne	.-88     	; 0x3236 <block_pick+0xe1a>
    328e:	2b c0       	rjmp	.+86     	; 0x32e6 <block_pick+0xeca>
    3290:	8e 01       	movw	r16, r28
    3292:	0b 56       	subi	r16, 0x6B	; 107
    3294:	1f 4f       	sbci	r17, 0xFF	; 255
    3296:	ce 01       	movw	r24, r28
    3298:	8f 56       	subi	r24, 0x6F	; 111
    329a:	9f 4f       	sbci	r25, 0xFF	; 255
    329c:	fc 01       	movw	r30, r24
    329e:	60 81       	ld	r22, Z
    32a0:	71 81       	ldd	r23, Z+1	; 0x01
    32a2:	82 81       	ldd	r24, Z+2	; 0x02
    32a4:	93 81       	ldd	r25, Z+3	; 0x03
    32a6:	2a d7       	rcall	.+3668   	; 0x40fc <__fixunssfsi>
    32a8:	dc 01       	movw	r26, r24
    32aa:	cb 01       	movw	r24, r22
    32ac:	f8 01       	movw	r30, r16
    32ae:	91 83       	std	Z+1, r25	; 0x01
    32b0:	80 83       	st	Z, r24
    32b2:	ce 01       	movw	r24, r28
    32b4:	87 56       	subi	r24, 0x67	; 103
    32b6:	9f 4f       	sbci	r25, 0xFF	; 255
    32b8:	9e 01       	movw	r18, r28
    32ba:	2b 56       	subi	r18, 0x6B	; 107
    32bc:	3f 4f       	sbci	r19, 0xFF	; 255
    32be:	f9 01       	movw	r30, r18
    32c0:	20 81       	ld	r18, Z
    32c2:	31 81       	ldd	r19, Z+1	; 0x01
    32c4:	fc 01       	movw	r30, r24
    32c6:	31 83       	std	Z+1, r19	; 0x01
    32c8:	20 83       	st	Z, r18
    32ca:	ce 01       	movw	r24, r28
    32cc:	87 56       	subi	r24, 0x67	; 103
    32ce:	9f 4f       	sbci	r25, 0xFF	; 255
    32d0:	fc 01       	movw	r30, r24
    32d2:	80 81       	ld	r24, Z
    32d4:	91 81       	ldd	r25, Z+1	; 0x01
    32d6:	01 97       	sbiw	r24, 0x01	; 1
    32d8:	f1 f7       	brne	.-4      	; 0x32d6 <block_pick+0xeba>
    32da:	9e 01       	movw	r18, r28
    32dc:	27 56       	subi	r18, 0x67	; 103
    32de:	3f 4f       	sbci	r19, 0xFF	; 255
    32e0:	f9 01       	movw	r30, r18
    32e2:	91 83       	std	Z+1, r25	; 0x01
    32e4:	80 83       	st	Z, r24
    32e6:	0e 94 30 0e 	call	0x1c60	; 0x1c60 <down_pick_up>
    32ea:	9e 01       	movw	r18, r28
    32ec:	25 56       	subi	r18, 0x65	; 101
    32ee:	3f 4f       	sbci	r19, 0xFF	; 255
    32f0:	80 e0       	ldi	r24, 0x00	; 0
    32f2:	90 e0       	ldi	r25, 0x00	; 0
    32f4:	aa e7       	ldi	r26, 0x7A	; 122
    32f6:	b4 e4       	ldi	r27, 0x44	; 68
    32f8:	f9 01       	movw	r30, r18
    32fa:	80 83       	st	Z, r24
    32fc:	91 83       	std	Z+1, r25	; 0x01
    32fe:	a2 83       	std	Z+2, r26	; 0x02
    3300:	b3 83       	std	Z+3, r27	; 0x03
    3302:	8e 01       	movw	r16, r28
    3304:	01 56       	subi	r16, 0x61	; 97
    3306:	1f 4f       	sbci	r17, 0xFF	; 255
    3308:	ce 01       	movw	r24, r28
    330a:	85 56       	subi	r24, 0x65	; 101
    330c:	9f 4f       	sbci	r25, 0xFF	; 255
    330e:	26 e6       	ldi	r18, 0x66	; 102
    3310:	36 e6       	ldi	r19, 0x66	; 102
    3312:	46 e6       	ldi	r20, 0x66	; 102
    3314:	55 e4       	ldi	r21, 0x45	; 69
    3316:	fc 01       	movw	r30, r24
    3318:	60 81       	ld	r22, Z
    331a:	71 81       	ldd	r23, Z+1	; 0x01
    331c:	82 81       	ldd	r24, Z+2	; 0x02
    331e:	93 81       	ldd	r25, Z+3	; 0x03
    3320:	cf d7       	rcall	.+3998   	; 0x42c0 <__mulsf3>
    3322:	dc 01       	movw	r26, r24
    3324:	cb 01       	movw	r24, r22
    3326:	f8 01       	movw	r30, r16
    3328:	80 83       	st	Z, r24
    332a:	91 83       	std	Z+1, r25	; 0x01
    332c:	a2 83       	std	Z+2, r26	; 0x02
    332e:	b3 83       	std	Z+3, r27	; 0x03
    3330:	ce 01       	movw	r24, r28
    3332:	81 56       	subi	r24, 0x61	; 97
    3334:	9f 4f       	sbci	r25, 0xFF	; 255
    3336:	20 e0       	ldi	r18, 0x00	; 0
    3338:	30 e0       	ldi	r19, 0x00	; 0
    333a:	40 e8       	ldi	r20, 0x80	; 128
    333c:	5f e3       	ldi	r21, 0x3F	; 63
    333e:	fc 01       	movw	r30, r24
    3340:	60 81       	ld	r22, Z
    3342:	71 81       	ldd	r23, Z+1	; 0x01
    3344:	82 81       	ldd	r24, Z+2	; 0x02
    3346:	93 81       	ldd	r25, Z+3	; 0x03
    3348:	68 d6       	rcall	.+3280   	; 0x401a <__cmpsf2>
    334a:	88 23       	and	r24, r24
    334c:	4c f4       	brge	.+18     	; 0x3360 <block_pick+0xf44>
    334e:	ce 01       	movw	r24, r28
    3350:	8d 55       	subi	r24, 0x5D	; 93
    3352:	9f 4f       	sbci	r25, 0xFF	; 255
    3354:	21 e0       	ldi	r18, 0x01	; 1
    3356:	30 e0       	ldi	r19, 0x00	; 0
    3358:	fc 01       	movw	r30, r24
    335a:	31 83       	std	Z+1, r19	; 0x01
    335c:	20 83       	st	Z, r18
    335e:	69 c0       	rjmp	.+210    	; 0x3432 <block_pick+0x1016>
    3360:	ce 01       	movw	r24, r28
    3362:	81 56       	subi	r24, 0x61	; 97
    3364:	9f 4f       	sbci	r25, 0xFF	; 255
    3366:	20 e0       	ldi	r18, 0x00	; 0
    3368:	3f ef       	ldi	r19, 0xFF	; 255
    336a:	4f e7       	ldi	r20, 0x7F	; 127
    336c:	57 e4       	ldi	r21, 0x47	; 71
    336e:	fc 01       	movw	r30, r24
    3370:	60 81       	ld	r22, Z
    3372:	71 81       	ldd	r23, Z+1	; 0x01
    3374:	82 81       	ldd	r24, Z+2	; 0x02
    3376:	93 81       	ldd	r25, Z+3	; 0x03
    3378:	9f d7       	rcall	.+3902   	; 0x42b8 <__gesf2>
    337a:	18 16       	cp	r1, r24
    337c:	0c f0       	brlt	.+2      	; 0x3380 <block_pick+0xf64>
    337e:	48 c0       	rjmp	.+144    	; 0x3410 <block_pick+0xff4>
    3380:	ce 01       	movw	r24, r28
    3382:	85 56       	subi	r24, 0x65	; 101
    3384:	9f 4f       	sbci	r25, 0xFF	; 255
    3386:	20 e0       	ldi	r18, 0x00	; 0
    3388:	30 e0       	ldi	r19, 0x00	; 0
    338a:	40 e2       	ldi	r20, 0x20	; 32
    338c:	51 e4       	ldi	r21, 0x41	; 65
    338e:	fc 01       	movw	r30, r24
    3390:	60 81       	ld	r22, Z
    3392:	71 81       	ldd	r23, Z+1	; 0x01
    3394:	82 81       	ldd	r24, Z+2	; 0x02
    3396:	93 81       	ldd	r25, Z+3	; 0x03
    3398:	93 d7       	rcall	.+3878   	; 0x42c0 <__mulsf3>
    339a:	dc 01       	movw	r26, r24
    339c:	cb 01       	movw	r24, r22
    339e:	8e 01       	movw	r16, r28
    33a0:	0d 55       	subi	r16, 0x5D	; 93
    33a2:	1f 4f       	sbci	r17, 0xFF	; 255
    33a4:	bc 01       	movw	r22, r24
    33a6:	cd 01       	movw	r24, r26
    33a8:	a9 d6       	rcall	.+3410   	; 0x40fc <__fixunssfsi>
    33aa:	dc 01       	movw	r26, r24
    33ac:	cb 01       	movw	r24, r22
    33ae:	f8 01       	movw	r30, r16
    33b0:	91 83       	std	Z+1, r25	; 0x01
    33b2:	80 83       	st	Z, r24
    33b4:	24 c0       	rjmp	.+72     	; 0x33fe <block_pick+0xfe2>
    33b6:	ce 01       	movw	r24, r28
    33b8:	8b 55       	subi	r24, 0x5B	; 91
    33ba:	9f 4f       	sbci	r25, 0xFF	; 255
    33bc:	20 e7       	ldi	r18, 0x70	; 112
    33be:	31 e0       	ldi	r19, 0x01	; 1
    33c0:	fc 01       	movw	r30, r24
    33c2:	31 83       	std	Z+1, r19	; 0x01
    33c4:	20 83       	st	Z, r18
    33c6:	ce 01       	movw	r24, r28
    33c8:	8b 55       	subi	r24, 0x5B	; 91
    33ca:	9f 4f       	sbci	r25, 0xFF	; 255
    33cc:	fc 01       	movw	r30, r24
    33ce:	80 81       	ld	r24, Z
    33d0:	91 81       	ldd	r25, Z+1	; 0x01
    33d2:	01 97       	sbiw	r24, 0x01	; 1
    33d4:	f1 f7       	brne	.-4      	; 0x33d2 <block_pick+0xfb6>
    33d6:	9e 01       	movw	r18, r28
    33d8:	2b 55       	subi	r18, 0x5B	; 91
    33da:	3f 4f       	sbci	r19, 0xFF	; 255
    33dc:	f9 01       	movw	r30, r18
    33de:	91 83       	std	Z+1, r25	; 0x01
    33e0:	80 83       	st	Z, r24
    33e2:	ce 01       	movw	r24, r28
    33e4:	8d 55       	subi	r24, 0x5D	; 93
    33e6:	9f 4f       	sbci	r25, 0xFF	; 255
    33e8:	9e 01       	movw	r18, r28
    33ea:	2d 55       	subi	r18, 0x5D	; 93
    33ec:	3f 4f       	sbci	r19, 0xFF	; 255
    33ee:	f9 01       	movw	r30, r18
    33f0:	20 81       	ld	r18, Z
    33f2:	31 81       	ldd	r19, Z+1	; 0x01
    33f4:	21 50       	subi	r18, 0x01	; 1
    33f6:	31 09       	sbc	r19, r1
    33f8:	fc 01       	movw	r30, r24
    33fa:	31 83       	std	Z+1, r19	; 0x01
    33fc:	20 83       	st	Z, r18
    33fe:	ce 01       	movw	r24, r28
    3400:	8d 55       	subi	r24, 0x5D	; 93
    3402:	9f 4f       	sbci	r25, 0xFF	; 255
    3404:	fc 01       	movw	r30, r24
    3406:	80 81       	ld	r24, Z
    3408:	91 81       	ldd	r25, Z+1	; 0x01
    340a:	00 97       	sbiw	r24, 0x00	; 0
    340c:	a1 f6       	brne	.-88     	; 0x33b6 <block_pick+0xf9a>
    340e:	2b c0       	rjmp	.+86     	; 0x3466 <block_pick+0x104a>
    3410:	8e 01       	movw	r16, r28
    3412:	0d 55       	subi	r16, 0x5D	; 93
    3414:	1f 4f       	sbci	r17, 0xFF	; 255
    3416:	ce 01       	movw	r24, r28
    3418:	81 56       	subi	r24, 0x61	; 97
    341a:	9f 4f       	sbci	r25, 0xFF	; 255
    341c:	fc 01       	movw	r30, r24
    341e:	60 81       	ld	r22, Z
    3420:	71 81       	ldd	r23, Z+1	; 0x01
    3422:	82 81       	ldd	r24, Z+2	; 0x02
    3424:	93 81       	ldd	r25, Z+3	; 0x03
    3426:	6a d6       	rcall	.+3284   	; 0x40fc <__fixunssfsi>
    3428:	dc 01       	movw	r26, r24
    342a:	cb 01       	movw	r24, r22
    342c:	f8 01       	movw	r30, r16
    342e:	91 83       	std	Z+1, r25	; 0x01
    3430:	80 83       	st	Z, r24
    3432:	ce 01       	movw	r24, r28
    3434:	89 55       	subi	r24, 0x59	; 89
    3436:	9f 4f       	sbci	r25, 0xFF	; 255
    3438:	9e 01       	movw	r18, r28
    343a:	2d 55       	subi	r18, 0x5D	; 93
    343c:	3f 4f       	sbci	r19, 0xFF	; 255
    343e:	f9 01       	movw	r30, r18
    3440:	20 81       	ld	r18, Z
    3442:	31 81       	ldd	r19, Z+1	; 0x01
    3444:	fc 01       	movw	r30, r24
    3446:	31 83       	std	Z+1, r19	; 0x01
    3448:	20 83       	st	Z, r18
    344a:	ce 01       	movw	r24, r28
    344c:	89 55       	subi	r24, 0x59	; 89
    344e:	9f 4f       	sbci	r25, 0xFF	; 255
    3450:	fc 01       	movw	r30, r24
    3452:	80 81       	ld	r24, Z
    3454:	91 81       	ldd	r25, Z+1	; 0x01
    3456:	01 97       	sbiw	r24, 0x01	; 1
    3458:	f1 f7       	brne	.-4      	; 0x3456 <block_pick+0x103a>
    345a:	9e 01       	movw	r18, r28
    345c:	29 55       	subi	r18, 0x59	; 89
    345e:	3f 4f       	sbci	r19, 0xFF	; 255
    3460:	f9 01       	movw	r30, r18
    3462:	91 83       	std	Z+1, r25	; 0x01
    3464:	80 83       	st	Z, r24
    3466:	0e 94 5f 10 	call	0x20be	; 0x20be <stop>
    346a:	9e 01       	movw	r18, r28
    346c:	27 55       	subi	r18, 0x57	; 87
    346e:	3f 4f       	sbci	r19, 0xFF	; 255
    3470:	80 e0       	ldi	r24, 0x00	; 0
    3472:	90 e0       	ldi	r25, 0x00	; 0
    3474:	aa e7       	ldi	r26, 0x7A	; 122
    3476:	b4 e4       	ldi	r27, 0x44	; 68
    3478:	f9 01       	movw	r30, r18
    347a:	80 83       	st	Z, r24
    347c:	91 83       	std	Z+1, r25	; 0x01
    347e:	a2 83       	std	Z+2, r26	; 0x02
    3480:	b3 83       	std	Z+3, r27	; 0x03
    3482:	8e 01       	movw	r16, r28
    3484:	03 55       	subi	r16, 0x53	; 83
    3486:	1f 4f       	sbci	r17, 0xFF	; 255
    3488:	ce 01       	movw	r24, r28
    348a:	87 55       	subi	r24, 0x57	; 87
    348c:	9f 4f       	sbci	r25, 0xFF	; 255
    348e:	26 e6       	ldi	r18, 0x66	; 102
    3490:	36 e6       	ldi	r19, 0x66	; 102
    3492:	46 e6       	ldi	r20, 0x66	; 102
    3494:	55 e4       	ldi	r21, 0x45	; 69
    3496:	fc 01       	movw	r30, r24
    3498:	60 81       	ld	r22, Z
    349a:	71 81       	ldd	r23, Z+1	; 0x01
    349c:	82 81       	ldd	r24, Z+2	; 0x02
    349e:	93 81       	ldd	r25, Z+3	; 0x03
    34a0:	0f d7       	rcall	.+3614   	; 0x42c0 <__mulsf3>
    34a2:	dc 01       	movw	r26, r24
    34a4:	cb 01       	movw	r24, r22
    34a6:	f8 01       	movw	r30, r16
    34a8:	80 83       	st	Z, r24
    34aa:	91 83       	std	Z+1, r25	; 0x01
    34ac:	a2 83       	std	Z+2, r26	; 0x02
    34ae:	b3 83       	std	Z+3, r27	; 0x03
    34b0:	ce 01       	movw	r24, r28
    34b2:	83 55       	subi	r24, 0x53	; 83
    34b4:	9f 4f       	sbci	r25, 0xFF	; 255
    34b6:	20 e0       	ldi	r18, 0x00	; 0
    34b8:	30 e0       	ldi	r19, 0x00	; 0
    34ba:	40 e8       	ldi	r20, 0x80	; 128
    34bc:	5f e3       	ldi	r21, 0x3F	; 63
    34be:	fc 01       	movw	r30, r24
    34c0:	60 81       	ld	r22, Z
    34c2:	71 81       	ldd	r23, Z+1	; 0x01
    34c4:	82 81       	ldd	r24, Z+2	; 0x02
    34c6:	93 81       	ldd	r25, Z+3	; 0x03
    34c8:	a8 d5       	rcall	.+2896   	; 0x401a <__cmpsf2>
    34ca:	88 23       	and	r24, r24
    34cc:	4c f4       	brge	.+18     	; 0x34e0 <block_pick+0x10c4>
    34ce:	ce 01       	movw	r24, r28
    34d0:	8f 54       	subi	r24, 0x4F	; 79
    34d2:	9f 4f       	sbci	r25, 0xFF	; 255
    34d4:	21 e0       	ldi	r18, 0x01	; 1
    34d6:	30 e0       	ldi	r19, 0x00	; 0
    34d8:	fc 01       	movw	r30, r24
    34da:	31 83       	std	Z+1, r19	; 0x01
    34dc:	20 83       	st	Z, r18
    34de:	69 c0       	rjmp	.+210    	; 0x35b2 <block_pick+0x1196>
    34e0:	ce 01       	movw	r24, r28
    34e2:	83 55       	subi	r24, 0x53	; 83
    34e4:	9f 4f       	sbci	r25, 0xFF	; 255
    34e6:	20 e0       	ldi	r18, 0x00	; 0
    34e8:	3f ef       	ldi	r19, 0xFF	; 255
    34ea:	4f e7       	ldi	r20, 0x7F	; 127
    34ec:	57 e4       	ldi	r21, 0x47	; 71
    34ee:	fc 01       	movw	r30, r24
    34f0:	60 81       	ld	r22, Z
    34f2:	71 81       	ldd	r23, Z+1	; 0x01
    34f4:	82 81       	ldd	r24, Z+2	; 0x02
    34f6:	93 81       	ldd	r25, Z+3	; 0x03
    34f8:	df d6       	rcall	.+3518   	; 0x42b8 <__gesf2>
    34fa:	18 16       	cp	r1, r24
    34fc:	0c f0       	brlt	.+2      	; 0x3500 <block_pick+0x10e4>
    34fe:	48 c0       	rjmp	.+144    	; 0x3590 <block_pick+0x1174>
    3500:	ce 01       	movw	r24, r28
    3502:	87 55       	subi	r24, 0x57	; 87
    3504:	9f 4f       	sbci	r25, 0xFF	; 255
    3506:	20 e0       	ldi	r18, 0x00	; 0
    3508:	30 e0       	ldi	r19, 0x00	; 0
    350a:	40 e2       	ldi	r20, 0x20	; 32
    350c:	51 e4       	ldi	r21, 0x41	; 65
    350e:	fc 01       	movw	r30, r24
    3510:	60 81       	ld	r22, Z
    3512:	71 81       	ldd	r23, Z+1	; 0x01
    3514:	82 81       	ldd	r24, Z+2	; 0x02
    3516:	93 81       	ldd	r25, Z+3	; 0x03
    3518:	d3 d6       	rcall	.+3494   	; 0x42c0 <__mulsf3>
    351a:	dc 01       	movw	r26, r24
    351c:	cb 01       	movw	r24, r22
    351e:	8e 01       	movw	r16, r28
    3520:	0f 54       	subi	r16, 0x4F	; 79
    3522:	1f 4f       	sbci	r17, 0xFF	; 255
    3524:	bc 01       	movw	r22, r24
    3526:	cd 01       	movw	r24, r26
    3528:	e9 d5       	rcall	.+3026   	; 0x40fc <__fixunssfsi>
    352a:	dc 01       	movw	r26, r24
    352c:	cb 01       	movw	r24, r22
    352e:	f8 01       	movw	r30, r16
    3530:	91 83       	std	Z+1, r25	; 0x01
    3532:	80 83       	st	Z, r24
    3534:	24 c0       	rjmp	.+72     	; 0x357e <block_pick+0x1162>
    3536:	ce 01       	movw	r24, r28
    3538:	8d 54       	subi	r24, 0x4D	; 77
    353a:	9f 4f       	sbci	r25, 0xFF	; 255
    353c:	20 e7       	ldi	r18, 0x70	; 112
    353e:	31 e0       	ldi	r19, 0x01	; 1
    3540:	fc 01       	movw	r30, r24
    3542:	31 83       	std	Z+1, r19	; 0x01
    3544:	20 83       	st	Z, r18
    3546:	ce 01       	movw	r24, r28
    3548:	8d 54       	subi	r24, 0x4D	; 77
    354a:	9f 4f       	sbci	r25, 0xFF	; 255
    354c:	fc 01       	movw	r30, r24
    354e:	80 81       	ld	r24, Z
    3550:	91 81       	ldd	r25, Z+1	; 0x01
    3552:	01 97       	sbiw	r24, 0x01	; 1
    3554:	f1 f7       	brne	.-4      	; 0x3552 <block_pick+0x1136>
    3556:	9e 01       	movw	r18, r28
    3558:	2d 54       	subi	r18, 0x4D	; 77
    355a:	3f 4f       	sbci	r19, 0xFF	; 255
    355c:	f9 01       	movw	r30, r18
    355e:	91 83       	std	Z+1, r25	; 0x01
    3560:	80 83       	st	Z, r24
    3562:	ce 01       	movw	r24, r28
    3564:	8f 54       	subi	r24, 0x4F	; 79
    3566:	9f 4f       	sbci	r25, 0xFF	; 255
    3568:	9e 01       	movw	r18, r28
    356a:	2f 54       	subi	r18, 0x4F	; 79
    356c:	3f 4f       	sbci	r19, 0xFF	; 255
    356e:	f9 01       	movw	r30, r18
    3570:	20 81       	ld	r18, Z
    3572:	31 81       	ldd	r19, Z+1	; 0x01
    3574:	21 50       	subi	r18, 0x01	; 1
    3576:	31 09       	sbc	r19, r1
    3578:	fc 01       	movw	r30, r24
    357a:	31 83       	std	Z+1, r19	; 0x01
    357c:	20 83       	st	Z, r18
    357e:	ce 01       	movw	r24, r28
    3580:	8f 54       	subi	r24, 0x4F	; 79
    3582:	9f 4f       	sbci	r25, 0xFF	; 255
    3584:	fc 01       	movw	r30, r24
    3586:	80 81       	ld	r24, Z
    3588:	91 81       	ldd	r25, Z+1	; 0x01
    358a:	00 97       	sbiw	r24, 0x00	; 0
    358c:	a1 f6       	brne	.-88     	; 0x3536 <block_pick+0x111a>
    358e:	2b c0       	rjmp	.+86     	; 0x35e6 <block_pick+0x11ca>
    3590:	8e 01       	movw	r16, r28
    3592:	0f 54       	subi	r16, 0x4F	; 79
    3594:	1f 4f       	sbci	r17, 0xFF	; 255
    3596:	ce 01       	movw	r24, r28
    3598:	83 55       	subi	r24, 0x53	; 83
    359a:	9f 4f       	sbci	r25, 0xFF	; 255
    359c:	fc 01       	movw	r30, r24
    359e:	60 81       	ld	r22, Z
    35a0:	71 81       	ldd	r23, Z+1	; 0x01
    35a2:	82 81       	ldd	r24, Z+2	; 0x02
    35a4:	93 81       	ldd	r25, Z+3	; 0x03
    35a6:	aa d5       	rcall	.+2900   	; 0x40fc <__fixunssfsi>
    35a8:	dc 01       	movw	r26, r24
    35aa:	cb 01       	movw	r24, r22
    35ac:	f8 01       	movw	r30, r16
    35ae:	91 83       	std	Z+1, r25	; 0x01
    35b0:	80 83       	st	Z, r24
    35b2:	ce 01       	movw	r24, r28
    35b4:	8b 54       	subi	r24, 0x4B	; 75
    35b6:	9f 4f       	sbci	r25, 0xFF	; 255
    35b8:	9e 01       	movw	r18, r28
    35ba:	2f 54       	subi	r18, 0x4F	; 79
    35bc:	3f 4f       	sbci	r19, 0xFF	; 255
    35be:	f9 01       	movw	r30, r18
    35c0:	20 81       	ld	r18, Z
    35c2:	31 81       	ldd	r19, Z+1	; 0x01
    35c4:	fc 01       	movw	r30, r24
    35c6:	31 83       	std	Z+1, r19	; 0x01
    35c8:	20 83       	st	Z, r18
    35ca:	ce 01       	movw	r24, r28
    35cc:	8b 54       	subi	r24, 0x4B	; 75
    35ce:	9f 4f       	sbci	r25, 0xFF	; 255
    35d0:	fc 01       	movw	r30, r24
    35d2:	80 81       	ld	r24, Z
    35d4:	91 81       	ldd	r25, Z+1	; 0x01
    35d6:	01 97       	sbiw	r24, 0x01	; 1
    35d8:	f1 f7       	brne	.-4      	; 0x35d6 <block_pick+0x11ba>
    35da:	9e 01       	movw	r18, r28
    35dc:	2b 54       	subi	r18, 0x4B	; 75
    35de:	3f 4f       	sbci	r19, 0xFF	; 255
    35e0:	f9 01       	movw	r30, r18
    35e2:	91 83       	std	Z+1, r25	; 0x01
    35e4:	80 83       	st	Z, r24
    35e6:	81 e0       	ldi	r24, 0x01	; 1
    35e8:	0e 94 f4 0b 	call	0x17e8	; 0x17e8 <ADC_Conversion>
    35ec:	88 2f       	mov	r24, r24
    35ee:	90 e0       	ldi	r25, 0x00	; 0
    35f0:	98 8f       	std	Y+24, r25	; 0x18
    35f2:	8f 8b       	std	Y+23, r24	; 0x17
    35f4:	83 e0       	ldi	r24, 0x03	; 3
    35f6:	0e 94 f4 0b 	call	0x17e8	; 0x17e8 <ADC_Conversion>
    35fa:	88 2f       	mov	r24, r24
    35fc:	90 e0       	ldi	r25, 0x00	; 0
    35fe:	9a 8f       	std	Y+26, r25	; 0x1a
    3600:	89 8f       	std	Y+25, r24	; 0x19
    3602:	82 e0       	ldi	r24, 0x02	; 2
    3604:	0e 94 f4 0b 	call	0x17e8	; 0x17e8 <ADC_Conversion>
    3608:	88 2f       	mov	r24, r24
    360a:	90 e0       	ldi	r25, 0x00	; 0
    360c:	9c 8f       	std	Y+28, r25	; 0x1c
    360e:	8b 8f       	std	Y+27, r24	; 0x1b
    3610:	1b d1       	rcall	.+566    	; 0x3848 <back_behav>
    3612:	80 91 02 02 	lds	r24, 0x0202
    3616:	90 91 03 02 	lds	r25, 0x0203
    361a:	9c 01       	movw	r18, r24
    361c:	8f 89       	ldd	r24, Y+23	; 0x17
    361e:	98 8d       	ldd	r25, Y+24	; 0x18
    3620:	28 17       	cp	r18, r24
    3622:	39 07       	cpc	r19, r25
    3624:	08 f0       	brcs	.+2      	; 0x3628 <block_pick+0x120c>
    3626:	e9 c0       	rjmp	.+466    	; 0x37fa <block_pick+0x13de>
    3628:	80 91 04 02 	lds	r24, 0x0204
    362c:	90 91 05 02 	lds	r25, 0x0205
    3630:	9c 01       	movw	r18, r24
    3632:	8b 8d       	ldd	r24, Y+27	; 0x1b
    3634:	9c 8d       	ldd	r25, Y+28	; 0x1c
    3636:	28 17       	cp	r18, r24
    3638:	39 07       	cpc	r19, r25
    363a:	08 f0       	brcs	.+2      	; 0x363e <block_pick+0x1222>
    363c:	de c0       	rjmp	.+444    	; 0x37fa <block_pick+0x13de>
    363e:	80 91 02 02 	lds	r24, 0x0202
    3642:	90 91 03 02 	lds	r25, 0x0203
    3646:	9c 01       	movw	r18, r24
    3648:	89 8d       	ldd	r24, Y+25	; 0x19
    364a:	9a 8d       	ldd	r25, Y+26	; 0x1a
    364c:	28 17       	cp	r18, r24
    364e:	39 07       	cpc	r19, r25
    3650:	08 f0       	brcs	.+2      	; 0x3654 <block_pick+0x1238>
    3652:	d3 c0       	rjmp	.+422    	; 0x37fa <block_pick+0x13de>
    3654:	6c e8       	ldi	r22, 0x8C	; 140
    3656:	8c e8       	ldi	r24, 0x8C	; 140
    3658:	0e 94 2d 0d 	call	0x1a5a	; 0x1a5a <velocity>
    365c:	8e e1       	ldi	r24, 0x1E	; 30
    365e:	90 e0       	ldi	r25, 0x00	; 0
    3660:	0e 94 48 11 	call	0x2290	; 0x2290 <forward_mm>
    3664:	43 d3       	rcall	.+1670   	; 0x3cec <turn_left>
    3666:	0e 94 5f 10 	call	0x20be	; 0x20be <stop>
    366a:	9e 01       	movw	r18, r28
    366c:	29 54       	subi	r18, 0x49	; 73
    366e:	3f 4f       	sbci	r19, 0xFF	; 255
    3670:	80 e0       	ldi	r24, 0x00	; 0
    3672:	90 e0       	ldi	r25, 0x00	; 0
    3674:	aa ef       	ldi	r26, 0xFA	; 250
    3676:	b3 e4       	ldi	r27, 0x43	; 67
    3678:	f9 01       	movw	r30, r18
    367a:	80 83       	st	Z, r24
    367c:	91 83       	std	Z+1, r25	; 0x01
    367e:	a2 83       	std	Z+2, r26	; 0x02
    3680:	b3 83       	std	Z+3, r27	; 0x03
    3682:	8e 01       	movw	r16, r28
    3684:	05 54       	subi	r16, 0x45	; 69
    3686:	1f 4f       	sbci	r17, 0xFF	; 255
    3688:	ce 01       	movw	r24, r28
    368a:	89 54       	subi	r24, 0x49	; 73
    368c:	9f 4f       	sbci	r25, 0xFF	; 255
    368e:	26 e6       	ldi	r18, 0x66	; 102
    3690:	36 e6       	ldi	r19, 0x66	; 102
    3692:	46 e6       	ldi	r20, 0x66	; 102
    3694:	55 e4       	ldi	r21, 0x45	; 69
    3696:	fc 01       	movw	r30, r24
    3698:	60 81       	ld	r22, Z
    369a:	71 81       	ldd	r23, Z+1	; 0x01
    369c:	82 81       	ldd	r24, Z+2	; 0x02
    369e:	93 81       	ldd	r25, Z+3	; 0x03
    36a0:	0f d6       	rcall	.+3102   	; 0x42c0 <__mulsf3>
    36a2:	dc 01       	movw	r26, r24
    36a4:	cb 01       	movw	r24, r22
    36a6:	f8 01       	movw	r30, r16
    36a8:	80 83       	st	Z, r24
    36aa:	91 83       	std	Z+1, r25	; 0x01
    36ac:	a2 83       	std	Z+2, r26	; 0x02
    36ae:	b3 83       	std	Z+3, r27	; 0x03
    36b0:	ce 01       	movw	r24, r28
    36b2:	85 54       	subi	r24, 0x45	; 69
    36b4:	9f 4f       	sbci	r25, 0xFF	; 255
    36b6:	20 e0       	ldi	r18, 0x00	; 0
    36b8:	30 e0       	ldi	r19, 0x00	; 0
    36ba:	40 e8       	ldi	r20, 0x80	; 128
    36bc:	5f e3       	ldi	r21, 0x3F	; 63
    36be:	fc 01       	movw	r30, r24
    36c0:	60 81       	ld	r22, Z
    36c2:	71 81       	ldd	r23, Z+1	; 0x01
    36c4:	82 81       	ldd	r24, Z+2	; 0x02
    36c6:	93 81       	ldd	r25, Z+3	; 0x03
    36c8:	a8 d4       	rcall	.+2384   	; 0x401a <__cmpsf2>
    36ca:	88 23       	and	r24, r24
    36cc:	4c f4       	brge	.+18     	; 0x36e0 <block_pick+0x12c4>
    36ce:	ce 01       	movw	r24, r28
    36d0:	81 54       	subi	r24, 0x41	; 65
    36d2:	9f 4f       	sbci	r25, 0xFF	; 255
    36d4:	21 e0       	ldi	r18, 0x01	; 1
    36d6:	30 e0       	ldi	r19, 0x00	; 0
    36d8:	fc 01       	movw	r30, r24
    36da:	31 83       	std	Z+1, r19	; 0x01
    36dc:	20 83       	st	Z, r18
    36de:	69 c0       	rjmp	.+210    	; 0x37b2 <block_pick+0x1396>
    36e0:	ce 01       	movw	r24, r28
    36e2:	85 54       	subi	r24, 0x45	; 69
    36e4:	9f 4f       	sbci	r25, 0xFF	; 255
    36e6:	20 e0       	ldi	r18, 0x00	; 0
    36e8:	3f ef       	ldi	r19, 0xFF	; 255
    36ea:	4f e7       	ldi	r20, 0x7F	; 127
    36ec:	57 e4       	ldi	r21, 0x47	; 71
    36ee:	fc 01       	movw	r30, r24
    36f0:	60 81       	ld	r22, Z
    36f2:	71 81       	ldd	r23, Z+1	; 0x01
    36f4:	82 81       	ldd	r24, Z+2	; 0x02
    36f6:	93 81       	ldd	r25, Z+3	; 0x03
    36f8:	df d5       	rcall	.+3006   	; 0x42b8 <__gesf2>
    36fa:	18 16       	cp	r1, r24
    36fc:	0c f0       	brlt	.+2      	; 0x3700 <block_pick+0x12e4>
    36fe:	48 c0       	rjmp	.+144    	; 0x3790 <block_pick+0x1374>
    3700:	ce 01       	movw	r24, r28
    3702:	89 54       	subi	r24, 0x49	; 73
    3704:	9f 4f       	sbci	r25, 0xFF	; 255
    3706:	20 e0       	ldi	r18, 0x00	; 0
    3708:	30 e0       	ldi	r19, 0x00	; 0
    370a:	40 e2       	ldi	r20, 0x20	; 32
    370c:	51 e4       	ldi	r21, 0x41	; 65
    370e:	fc 01       	movw	r30, r24
    3710:	60 81       	ld	r22, Z
    3712:	71 81       	ldd	r23, Z+1	; 0x01
    3714:	82 81       	ldd	r24, Z+2	; 0x02
    3716:	93 81       	ldd	r25, Z+3	; 0x03
    3718:	d3 d5       	rcall	.+2982   	; 0x42c0 <__mulsf3>
    371a:	dc 01       	movw	r26, r24
    371c:	cb 01       	movw	r24, r22
    371e:	8e 01       	movw	r16, r28
    3720:	01 54       	subi	r16, 0x41	; 65
    3722:	1f 4f       	sbci	r17, 0xFF	; 255
    3724:	bc 01       	movw	r22, r24
    3726:	cd 01       	movw	r24, r26
    3728:	e9 d4       	rcall	.+2514   	; 0x40fc <__fixunssfsi>
    372a:	dc 01       	movw	r26, r24
    372c:	cb 01       	movw	r24, r22
    372e:	f8 01       	movw	r30, r16
    3730:	91 83       	std	Z+1, r25	; 0x01
    3732:	80 83       	st	Z, r24
    3734:	24 c0       	rjmp	.+72     	; 0x377e <block_pick+0x1362>
    3736:	ce 01       	movw	r24, r28
    3738:	8f 53       	subi	r24, 0x3F	; 63
    373a:	9f 4f       	sbci	r25, 0xFF	; 255
    373c:	20 e7       	ldi	r18, 0x70	; 112
    373e:	31 e0       	ldi	r19, 0x01	; 1
    3740:	fc 01       	movw	r30, r24
    3742:	31 83       	std	Z+1, r19	; 0x01
    3744:	20 83       	st	Z, r18
    3746:	ce 01       	movw	r24, r28
    3748:	8f 53       	subi	r24, 0x3F	; 63
    374a:	9f 4f       	sbci	r25, 0xFF	; 255
    374c:	fc 01       	movw	r30, r24
    374e:	80 81       	ld	r24, Z
    3750:	91 81       	ldd	r25, Z+1	; 0x01
    3752:	01 97       	sbiw	r24, 0x01	; 1
    3754:	f1 f7       	brne	.-4      	; 0x3752 <block_pick+0x1336>
    3756:	9e 01       	movw	r18, r28
    3758:	2f 53       	subi	r18, 0x3F	; 63
    375a:	3f 4f       	sbci	r19, 0xFF	; 255
    375c:	f9 01       	movw	r30, r18
    375e:	91 83       	std	Z+1, r25	; 0x01
    3760:	80 83       	st	Z, r24
    3762:	ce 01       	movw	r24, r28
    3764:	81 54       	subi	r24, 0x41	; 65
    3766:	9f 4f       	sbci	r25, 0xFF	; 255
    3768:	9e 01       	movw	r18, r28
    376a:	21 54       	subi	r18, 0x41	; 65
    376c:	3f 4f       	sbci	r19, 0xFF	; 255
    376e:	f9 01       	movw	r30, r18
    3770:	20 81       	ld	r18, Z
    3772:	31 81       	ldd	r19, Z+1	; 0x01
    3774:	21 50       	subi	r18, 0x01	; 1
    3776:	31 09       	sbc	r19, r1
    3778:	fc 01       	movw	r30, r24
    377a:	31 83       	std	Z+1, r19	; 0x01
    377c:	20 83       	st	Z, r18
    377e:	ce 01       	movw	r24, r28
    3780:	81 54       	subi	r24, 0x41	; 65
    3782:	9f 4f       	sbci	r25, 0xFF	; 255
    3784:	fc 01       	movw	r30, r24
    3786:	80 81       	ld	r24, Z
    3788:	91 81       	ldd	r25, Z+1	; 0x01
    378a:	00 97       	sbiw	r24, 0x00	; 0
    378c:	a1 f6       	brne	.-88     	; 0x3736 <block_pick+0x131a>
    378e:	2b c0       	rjmp	.+86     	; 0x37e6 <block_pick+0x13ca>
    3790:	8e 01       	movw	r16, r28
    3792:	01 54       	subi	r16, 0x41	; 65
    3794:	1f 4f       	sbci	r17, 0xFF	; 255
    3796:	ce 01       	movw	r24, r28
    3798:	85 54       	subi	r24, 0x45	; 69
    379a:	9f 4f       	sbci	r25, 0xFF	; 255
    379c:	fc 01       	movw	r30, r24
    379e:	60 81       	ld	r22, Z
    37a0:	71 81       	ldd	r23, Z+1	; 0x01
    37a2:	82 81       	ldd	r24, Z+2	; 0x02
    37a4:	93 81       	ldd	r25, Z+3	; 0x03
    37a6:	aa d4       	rcall	.+2388   	; 0x40fc <__fixunssfsi>
    37a8:	dc 01       	movw	r26, r24
    37aa:	cb 01       	movw	r24, r22
    37ac:	f8 01       	movw	r30, r16
    37ae:	91 83       	std	Z+1, r25	; 0x01
    37b0:	80 83       	st	Z, r24
    37b2:	ce 01       	movw	r24, r28
    37b4:	8d 53       	subi	r24, 0x3D	; 61
    37b6:	9f 4f       	sbci	r25, 0xFF	; 255
    37b8:	9e 01       	movw	r18, r28
    37ba:	21 54       	subi	r18, 0x41	; 65
    37bc:	3f 4f       	sbci	r19, 0xFF	; 255
    37be:	f9 01       	movw	r30, r18
    37c0:	20 81       	ld	r18, Z
    37c2:	31 81       	ldd	r19, Z+1	; 0x01
    37c4:	fc 01       	movw	r30, r24
    37c6:	31 83       	std	Z+1, r19	; 0x01
    37c8:	20 83       	st	Z, r18
    37ca:	ce 01       	movw	r24, r28
    37cc:	8d 53       	subi	r24, 0x3D	; 61
    37ce:	9f 4f       	sbci	r25, 0xFF	; 255
    37d0:	fc 01       	movw	r30, r24
    37d2:	80 81       	ld	r24, Z
    37d4:	91 81       	ldd	r25, Z+1	; 0x01
    37d6:	01 97       	sbiw	r24, 0x01	; 1
    37d8:	f1 f7       	brne	.-4      	; 0x37d6 <block_pick+0x13ba>
    37da:	9e 01       	movw	r18, r28
    37dc:	2d 53       	subi	r18, 0x3D	; 61
    37de:	3f 4f       	sbci	r19, 0xFF	; 255
    37e0:	f9 01       	movw	r30, r18
    37e2:	91 83       	std	Z+1, r25	; 0x01
    37e4:	80 83       	st	Z, r24
    37e6:	82 e0       	ldi	r24, 0x02	; 2
    37e8:	90 e0       	ldi	r25, 0x00	; 0
    37ea:	9c 83       	std	Y+4, r25	; 0x04
    37ec:	8b 83       	std	Y+3, r24	; 0x03
    37ee:	82 e0       	ldi	r24, 0x02	; 2
    37f0:	90 e0       	ldi	r25, 0x00	; 0
    37f2:	9a 83       	std	Y+2, r25	; 0x02
    37f4:	89 83       	std	Y+1, r24	; 0x01
    37f6:	00 00       	nop
    37f8:	0e c0       	rjmp	.+28     	; 0x3816 <block_pick+0x13fa>
    37fa:	f5 ce       	rjmp	.-534    	; 0x35e6 <block_pick+0x11ca>
    37fc:	80 91 00 02 	lds	r24, 0x0200
    3800:	90 91 01 02 	lds	r25, 0x0201
    3804:	89 35       	cpi	r24, 0x59	; 89
    3806:	91 05       	cpc	r25, r1
    3808:	30 f4       	brcc	.+12     	; 0x3816 <block_pick+0x13fa>
    380a:	6a e5       	ldi	r22, 0x5A	; 90
    380c:	8a e5       	ldi	r24, 0x5A	; 90
    380e:	0e 94 2d 0d 	call	0x1a5a	; 0x1a5a <velocity>
    3812:	0e 94 44 10 	call	0x2088	; 0x2088 <back>
    3816:	8b 81       	ldd	r24, Y+3	; 0x03
    3818:	9c 81       	ldd	r25, Y+4	; 0x04
    381a:	81 30       	cpi	r24, 0x01	; 1
    381c:	91 05       	cpc	r25, r1
    381e:	09 f4       	brne	.+2      	; 0x3822 <block_pick+0x1406>
    3820:	69 cc       	rjmp	.-1838   	; 0x30f4 <block_pick+0xcd8>
    3822:	89 81       	ldd	r24, Y+1	; 0x01
    3824:	9a 81       	ldd	r25, Y+2	; 0x02
    3826:	81 30       	cpi	r24, 0x01	; 1
    3828:	91 05       	cpc	r25, r1
    382a:	11 f4       	brne	.+4      	; 0x3830 <block_pick+0x1414>
    382c:	0c 94 c4 13 	jmp	0x2788	; 0x2788 <block_pick+0x36c>
    3830:	cc 53       	subi	r28, 0x3C	; 60
    3832:	df 4f       	sbci	r29, 0xFF	; 255
    3834:	0f b6       	in	r0, 0x3f	; 63
    3836:	f8 94       	cli
    3838:	de bf       	out	0x3e, r29	; 62
    383a:	0f be       	out	0x3f, r0	; 63
    383c:	cd bf       	out	0x3d, r28	; 61
    383e:	df 91       	pop	r29
    3840:	cf 91       	pop	r28
    3842:	1f 91       	pop	r17
    3844:	0f 91       	pop	r16
    3846:	08 95       	ret

00003848 <back_behav>:
		
		void back_behav(void)
		{
    3848:	cf 93       	push	r28
    384a:	df 93       	push	r29
    384c:	00 d0       	rcall	.+0      	; 0x384e <back_behav+0x6>
    384e:	00 d0       	rcall	.+0      	; 0x3850 <back_behav+0x8>
    3850:	cd b7       	in	r28, 0x3d	; 61
    3852:	de b7       	in	r29, 0x3e	; 62
			unsigned int left_sensor=ADC_Conversion(1);
    3854:	81 e0       	ldi	r24, 0x01	; 1
    3856:	0e 94 f4 0b 	call	0x17e8	; 0x17e8 <ADC_Conversion>
    385a:	88 2f       	mov	r24, r24
    385c:	90 e0       	ldi	r25, 0x00	; 0
    385e:	9a 83       	std	Y+2, r25	; 0x02
    3860:	89 83       	std	Y+1, r24	; 0x01
			unsigned int right_sensor=ADC_Conversion(3);
    3862:	83 e0       	ldi	r24, 0x03	; 3
    3864:	0e 94 f4 0b 	call	0x17e8	; 0x17e8 <ADC_Conversion>
    3868:	88 2f       	mov	r24, r24
    386a:	90 e0       	ldi	r25, 0x00	; 0
    386c:	9c 83       	std	Y+4, r25	; 0x04
    386e:	8b 83       	std	Y+3, r24	; 0x03
			unsigned int centre_sensor=ADC_Conversion(2);
    3870:	82 e0       	ldi	r24, 0x02	; 2
    3872:	0e 94 f4 0b 	call	0x17e8	; 0x17e8 <ADC_Conversion>
    3876:	88 2f       	mov	r24, r24
    3878:	90 e0       	ldi	r25, 0x00	; 0
    387a:	9e 83       	std	Y+6, r25	; 0x06
    387c:	8d 83       	std	Y+5, r24	; 0x05
			
			if(left_sensor<p && centre_sensor>q && right_sensor<p)
    387e:	80 91 02 02 	lds	r24, 0x0202
    3882:	90 91 03 02 	lds	r25, 0x0203
    3886:	9c 01       	movw	r18, r24
    3888:	89 81       	ldd	r24, Y+1	; 0x01
    388a:	9a 81       	ldd	r25, Y+2	; 0x02
    388c:	82 17       	cp	r24, r18
    388e:	93 07       	cpc	r25, r19
    3890:	d0 f4       	brcc	.+52     	; 0x38c6 <back_behav+0x7e>
    3892:	80 91 04 02 	lds	r24, 0x0204
    3896:	90 91 05 02 	lds	r25, 0x0205
    389a:	9c 01       	movw	r18, r24
    389c:	8d 81       	ldd	r24, Y+5	; 0x05
    389e:	9e 81       	ldd	r25, Y+6	; 0x06
    38a0:	28 17       	cp	r18, r24
    38a2:	39 07       	cpc	r19, r25
    38a4:	80 f4       	brcc	.+32     	; 0x38c6 <back_behav+0x7e>
    38a6:	80 91 02 02 	lds	r24, 0x0202
    38aa:	90 91 03 02 	lds	r25, 0x0203
    38ae:	9c 01       	movw	r18, r24
    38b0:	8b 81       	ldd	r24, Y+3	; 0x03
    38b2:	9c 81       	ldd	r25, Y+4	; 0x04
    38b4:	82 17       	cp	r24, r18
    38b6:	93 07       	cpc	r25, r19
    38b8:	30 f4       	brcc	.+12     	; 0x38c6 <back_behav+0x7e>
			{
				velocity(190,190);
    38ba:	6e eb       	ldi	r22, 0xBE	; 190
    38bc:	8e eb       	ldi	r24, 0xBE	; 190
    38be:	0e 94 2d 0d 	call	0x1a5a	; 0x1a5a <velocity>
				back();
    38c2:	0e 94 44 10 	call	0x2088	; 0x2088 <back>
			}
			if(left_sensor<p && centre_sensor<q && right_sensor>p)
    38c6:	80 91 02 02 	lds	r24, 0x0202
    38ca:	90 91 03 02 	lds	r25, 0x0203
    38ce:	9c 01       	movw	r18, r24
    38d0:	89 81       	ldd	r24, Y+1	; 0x01
    38d2:	9a 81       	ldd	r25, Y+2	; 0x02
    38d4:	82 17       	cp	r24, r18
    38d6:	93 07       	cpc	r25, r19
    38d8:	d0 f4       	brcc	.+52     	; 0x390e <back_behav+0xc6>
    38da:	80 91 04 02 	lds	r24, 0x0204
    38de:	90 91 05 02 	lds	r25, 0x0205
    38e2:	9c 01       	movw	r18, r24
    38e4:	8d 81       	ldd	r24, Y+5	; 0x05
    38e6:	9e 81       	ldd	r25, Y+6	; 0x06
    38e8:	82 17       	cp	r24, r18
    38ea:	93 07       	cpc	r25, r19
    38ec:	80 f4       	brcc	.+32     	; 0x390e <back_behav+0xc6>
    38ee:	80 91 02 02 	lds	r24, 0x0202
    38f2:	90 91 03 02 	lds	r25, 0x0203
    38f6:	9c 01       	movw	r18, r24
    38f8:	8b 81       	ldd	r24, Y+3	; 0x03
    38fa:	9c 81       	ldd	r25, Y+4	; 0x04
    38fc:	28 17       	cp	r18, r24
    38fe:	39 07       	cpc	r19, r25
    3900:	30 f4       	brcc	.+12     	; 0x390e <back_behav+0xc6>
			{
				velocity(100,100);
    3902:	64 e6       	ldi	r22, 0x64	; 100
    3904:	84 e6       	ldi	r24, 0x64	; 100
    3906:	0e 94 2d 0d 	call	0x1a5a	; 0x1a5a <velocity>
				right();
    390a:	0e 94 56 10 	call	0x20ac	; 0x20ac <right>
			}
			if(left_sensor>p && centre_sensor<q && right_sensor<p)
    390e:	80 91 02 02 	lds	r24, 0x0202
    3912:	90 91 03 02 	lds	r25, 0x0203
    3916:	9c 01       	movw	r18, r24
    3918:	89 81       	ldd	r24, Y+1	; 0x01
    391a:	9a 81       	ldd	r25, Y+2	; 0x02
    391c:	28 17       	cp	r18, r24
    391e:	39 07       	cpc	r19, r25
    3920:	d0 f4       	brcc	.+52     	; 0x3956 <back_behav+0x10e>
    3922:	80 91 04 02 	lds	r24, 0x0204
    3926:	90 91 05 02 	lds	r25, 0x0205
    392a:	9c 01       	movw	r18, r24
    392c:	8d 81       	ldd	r24, Y+5	; 0x05
    392e:	9e 81       	ldd	r25, Y+6	; 0x06
    3930:	82 17       	cp	r24, r18
    3932:	93 07       	cpc	r25, r19
    3934:	80 f4       	brcc	.+32     	; 0x3956 <back_behav+0x10e>
    3936:	80 91 02 02 	lds	r24, 0x0202
    393a:	90 91 03 02 	lds	r25, 0x0203
    393e:	9c 01       	movw	r18, r24
    3940:	8b 81       	ldd	r24, Y+3	; 0x03
    3942:	9c 81       	ldd	r25, Y+4	; 0x04
    3944:	82 17       	cp	r24, r18
    3946:	93 07       	cpc	r25, r19
    3948:	30 f4       	brcc	.+12     	; 0x3956 <back_behav+0x10e>
			{
				velocity(100,100);
    394a:	64 e6       	ldi	r22, 0x64	; 100
    394c:	84 e6       	ldi	r24, 0x64	; 100
    394e:	0e 94 2d 0d 	call	0x1a5a	; 0x1a5a <velocity>
				left();
    3952:	0e 94 4d 10 	call	0x209a	; 0x209a <left>
			}

		}		
    3956:	26 96       	adiw	r28, 0x06	; 6
    3958:	0f b6       	in	r0, 0x3f	; 63
    395a:	f8 94       	cli
    395c:	de bf       	out	0x3e, r29	; 62
    395e:	0f be       	out	0x3f, r0	; 63
    3960:	cd bf       	out	0x3d, r28	; 61
    3962:	df 91       	pop	r29
    3964:	cf 91       	pop	r28
    3966:	08 95       	ret

00003968 <natural_behavprox>:
		
		
		void natural_behavprox(void)
		{
    3968:	cf 93       	push	r28
    396a:	df 93       	push	r29
    396c:	00 d0       	rcall	.+0      	; 0x396e <natural_behavprox+0x6>
    396e:	00 d0       	rcall	.+0      	; 0x3970 <natural_behavprox+0x8>
    3970:	cd b7       	in	r28, 0x3d	; 61
    3972:	de b7       	in	r29, 0x3e	; 62
			unsigned int left_sensor=ADC_Conversion(1);
    3974:	81 e0       	ldi	r24, 0x01	; 1
    3976:	0e 94 f4 0b 	call	0x17e8	; 0x17e8 <ADC_Conversion>
    397a:	88 2f       	mov	r24, r24
    397c:	90 e0       	ldi	r25, 0x00	; 0
    397e:	9a 83       	std	Y+2, r25	; 0x02
    3980:	89 83       	std	Y+1, r24	; 0x01
			unsigned int right_sensor=ADC_Conversion(3);
    3982:	83 e0       	ldi	r24, 0x03	; 3
    3984:	0e 94 f4 0b 	call	0x17e8	; 0x17e8 <ADC_Conversion>
    3988:	88 2f       	mov	r24, r24
    398a:	90 e0       	ldi	r25, 0x00	; 0
    398c:	9c 83       	std	Y+4, r25	; 0x04
    398e:	8b 83       	std	Y+3, r24	; 0x03
			unsigned int centre_sensor=ADC_Conversion(2);
    3990:	82 e0       	ldi	r24, 0x02	; 2
    3992:	0e 94 f4 0b 	call	0x17e8	; 0x17e8 <ADC_Conversion>
    3996:	88 2f       	mov	r24, r24
    3998:	90 e0       	ldi	r25, 0x00	; 0
    399a:	9e 83       	std	Y+6, r25	; 0x06
    399c:	8d 83       	std	Y+5, r24	; 0x05
			if(left_sensor<p && centre_sensor>q && right_sensor<p)
    399e:	80 91 02 02 	lds	r24, 0x0202
    39a2:	90 91 03 02 	lds	r25, 0x0203
    39a6:	9c 01       	movw	r18, r24
    39a8:	89 81       	ldd	r24, Y+1	; 0x01
    39aa:	9a 81       	ldd	r25, Y+2	; 0x02
    39ac:	82 17       	cp	r24, r18
    39ae:	93 07       	cpc	r25, r19
    39b0:	d0 f4       	brcc	.+52     	; 0x39e6 <natural_behavprox+0x7e>
    39b2:	80 91 04 02 	lds	r24, 0x0204
    39b6:	90 91 05 02 	lds	r25, 0x0205
    39ba:	9c 01       	movw	r18, r24
    39bc:	8d 81       	ldd	r24, Y+5	; 0x05
    39be:	9e 81       	ldd	r25, Y+6	; 0x06
    39c0:	28 17       	cp	r18, r24
    39c2:	39 07       	cpc	r19, r25
    39c4:	80 f4       	brcc	.+32     	; 0x39e6 <natural_behavprox+0x7e>
    39c6:	80 91 02 02 	lds	r24, 0x0202
    39ca:	90 91 03 02 	lds	r25, 0x0203
    39ce:	9c 01       	movw	r18, r24
    39d0:	8b 81       	ldd	r24, Y+3	; 0x03
    39d2:	9c 81       	ldd	r25, Y+4	; 0x04
    39d4:	82 17       	cp	r24, r18
    39d6:	93 07       	cpc	r25, r19
    39d8:	30 f4       	brcc	.+12     	; 0x39e6 <natural_behavprox+0x7e>
			{
				velocity(110,110);
    39da:	6e e6       	ldi	r22, 0x6E	; 110
    39dc:	8e e6       	ldi	r24, 0x6E	; 110
    39de:	0e 94 2d 0d 	call	0x1a5a	; 0x1a5a <velocity>
				forward();
    39e2:	0e 94 3b 10 	call	0x2076	; 0x2076 <forward>
			}
			if(left_sensor<p && centre_sensor<q && right_sensor>p)
    39e6:	80 91 02 02 	lds	r24, 0x0202
    39ea:	90 91 03 02 	lds	r25, 0x0203
    39ee:	9c 01       	movw	r18, r24
    39f0:	89 81       	ldd	r24, Y+1	; 0x01
    39f2:	9a 81       	ldd	r25, Y+2	; 0x02
    39f4:	82 17       	cp	r24, r18
    39f6:	93 07       	cpc	r25, r19
    39f8:	d0 f4       	brcc	.+52     	; 0x3a2e <natural_behavprox+0xc6>
    39fa:	80 91 04 02 	lds	r24, 0x0204
    39fe:	90 91 05 02 	lds	r25, 0x0205
    3a02:	9c 01       	movw	r18, r24
    3a04:	8d 81       	ldd	r24, Y+5	; 0x05
    3a06:	9e 81       	ldd	r25, Y+6	; 0x06
    3a08:	82 17       	cp	r24, r18
    3a0a:	93 07       	cpc	r25, r19
    3a0c:	80 f4       	brcc	.+32     	; 0x3a2e <natural_behavprox+0xc6>
    3a0e:	80 91 02 02 	lds	r24, 0x0202
    3a12:	90 91 03 02 	lds	r25, 0x0203
    3a16:	9c 01       	movw	r18, r24
    3a18:	8b 81       	ldd	r24, Y+3	; 0x03
    3a1a:	9c 81       	ldd	r25, Y+4	; 0x04
    3a1c:	28 17       	cp	r18, r24
    3a1e:	39 07       	cpc	r19, r25
    3a20:	30 f4       	brcc	.+12     	; 0x3a2e <natural_behavprox+0xc6>
			{
				velocity(90,90);
    3a22:	6a e5       	ldi	r22, 0x5A	; 90
    3a24:	8a e5       	ldi	r24, 0x5A	; 90
    3a26:	0e 94 2d 0d 	call	0x1a5a	; 0x1a5a <velocity>
				right();
    3a2a:	0e 94 56 10 	call	0x20ac	; 0x20ac <right>
			}
			if(left_sensor>p && centre_sensor<q && right_sensor<p)
    3a2e:	80 91 02 02 	lds	r24, 0x0202
    3a32:	90 91 03 02 	lds	r25, 0x0203
    3a36:	9c 01       	movw	r18, r24
    3a38:	89 81       	ldd	r24, Y+1	; 0x01
    3a3a:	9a 81       	ldd	r25, Y+2	; 0x02
    3a3c:	28 17       	cp	r18, r24
    3a3e:	39 07       	cpc	r19, r25
    3a40:	d0 f4       	brcc	.+52     	; 0x3a76 <natural_behavprox+0x10e>
    3a42:	80 91 04 02 	lds	r24, 0x0204
    3a46:	90 91 05 02 	lds	r25, 0x0205
    3a4a:	9c 01       	movw	r18, r24
    3a4c:	8d 81       	ldd	r24, Y+5	; 0x05
    3a4e:	9e 81       	ldd	r25, Y+6	; 0x06
    3a50:	82 17       	cp	r24, r18
    3a52:	93 07       	cpc	r25, r19
    3a54:	80 f4       	brcc	.+32     	; 0x3a76 <natural_behavprox+0x10e>
    3a56:	80 91 02 02 	lds	r24, 0x0202
    3a5a:	90 91 03 02 	lds	r25, 0x0203
    3a5e:	9c 01       	movw	r18, r24
    3a60:	8b 81       	ldd	r24, Y+3	; 0x03
    3a62:	9c 81       	ldd	r25, Y+4	; 0x04
    3a64:	82 17       	cp	r24, r18
    3a66:	93 07       	cpc	r25, r19
    3a68:	30 f4       	brcc	.+12     	; 0x3a76 <natural_behavprox+0x10e>
			{
				velocity(90,90);
    3a6a:	6a e5       	ldi	r22, 0x5A	; 90
    3a6c:	8a e5       	ldi	r24, 0x5A	; 90
    3a6e:	0e 94 2d 0d 	call	0x1a5a	; 0x1a5a <velocity>
				left();
    3a72:	0e 94 4d 10 	call	0x209a	; 0x209a <left>
			}
		}
    3a76:	26 96       	adiw	r28, 0x06	; 6
    3a78:	0f b6       	in	r0, 0x3f	; 63
    3a7a:	f8 94       	cli
    3a7c:	de bf       	out	0x3e, r29	; 62
    3a7e:	0f be       	out	0x3f, r0	; 63
    3a80:	cd bf       	out	0x3d, r28	; 61
    3a82:	df 91       	pop	r29
    3a84:	cf 91       	pop	r28
    3a86:	08 95       	ret

00003a88 <turn_right>:
		flag=0;
		void turn_right()
		{
    3a88:	cf 93       	push	r28
    3a8a:	df 93       	push	r29
    3a8c:	cd b7       	in	r28, 0x3d	; 61
    3a8e:	de b7       	in	r29, 0x3e	; 62
    3a90:	a4 97       	sbiw	r28, 0x24	; 36
    3a92:	0f b6       	in	r0, 0x3f	; 63
    3a94:	f8 94       	cli
    3a96:	de bf       	out	0x3e, r29	; 62
    3a98:	0f be       	out	0x3f, r0	; 63
    3a9a:	cd bf       	out	0x3d, r28	; 61
			forward_mm(25);
    3a9c:	89 e1       	ldi	r24, 0x19	; 25
    3a9e:	90 e0       	ldi	r25, 0x00	; 0
    3aa0:	0e 94 48 11 	call	0x2290	; 0x2290 <forward_mm>
			right();
    3aa4:	0e 94 56 10 	call	0x20ac	; 0x20ac <right>
    3aa8:	80 e0       	ldi	r24, 0x00	; 0
    3aaa:	90 e0       	ldi	r25, 0x00	; 0
    3aac:	a8 e4       	ldi	r26, 0x48	; 72
    3aae:	b3 e4       	ldi	r27, 0x43	; 67
    3ab0:	89 87       	std	Y+9, r24	; 0x09
    3ab2:	9a 87       	std	Y+10, r25	; 0x0a
    3ab4:	ab 87       	std	Y+11, r26	; 0x0b
    3ab6:	bc 87       	std	Y+12, r27	; 0x0c

	__builtin_avr_delay_cycles(__ticks_dc);

#else
	uint16_t __ticks;
	__tmp = ((F_CPU) / 4e3) * __ms;
    3ab8:	26 e6       	ldi	r18, 0x66	; 102
    3aba:	36 e6       	ldi	r19, 0x66	; 102
    3abc:	46 e6       	ldi	r20, 0x66	; 102
    3abe:	55 e4       	ldi	r21, 0x45	; 69
    3ac0:	69 85       	ldd	r22, Y+9	; 0x09
    3ac2:	7a 85       	ldd	r23, Y+10	; 0x0a
    3ac4:	8b 85       	ldd	r24, Y+11	; 0x0b
    3ac6:	9c 85       	ldd	r25, Y+12	; 0x0c
    3ac8:	fb d3       	rcall	.+2038   	; 0x42c0 <__mulsf3>
    3aca:	dc 01       	movw	r26, r24
    3acc:	cb 01       	movw	r24, r22
    3ace:	8d 87       	std	Y+13, r24	; 0x0d
    3ad0:	9e 87       	std	Y+14, r25	; 0x0e
    3ad2:	af 87       	std	Y+15, r26	; 0x0f
    3ad4:	b8 8b       	std	Y+16, r27	; 0x10
	if (__tmp < 1.0)
    3ad6:	20 e0       	ldi	r18, 0x00	; 0
    3ad8:	30 e0       	ldi	r19, 0x00	; 0
    3ada:	40 e8       	ldi	r20, 0x80	; 128
    3adc:	5f e3       	ldi	r21, 0x3F	; 63
    3ade:	6d 85       	ldd	r22, Y+13	; 0x0d
    3ae0:	7e 85       	ldd	r23, Y+14	; 0x0e
    3ae2:	8f 85       	ldd	r24, Y+15	; 0x0f
    3ae4:	98 89       	ldd	r25, Y+16	; 0x10
    3ae6:	99 d2       	rcall	.+1330   	; 0x401a <__cmpsf2>
    3ae8:	88 23       	and	r24, r24
    3aea:	2c f4       	brge	.+10     	; 0x3af6 <turn_right+0x6e>
		__ticks = 1;
    3aec:	81 e0       	ldi	r24, 0x01	; 1
    3aee:	90 e0       	ldi	r25, 0x00	; 0
    3af0:	9a 8b       	std	Y+18, r25	; 0x12
    3af2:	89 8b       	std	Y+17, r24	; 0x11
    3af4:	3b c0       	rjmp	.+118    	; 0x3b6c <turn_right+0xe4>
	else if (__tmp > 65535)
    3af6:	20 e0       	ldi	r18, 0x00	; 0
    3af8:	3f ef       	ldi	r19, 0xFF	; 255
    3afa:	4f e7       	ldi	r20, 0x7F	; 127
    3afc:	57 e4       	ldi	r21, 0x47	; 71
    3afe:	6d 85       	ldd	r22, Y+13	; 0x0d
    3b00:	7e 85       	ldd	r23, Y+14	; 0x0e
    3b02:	8f 85       	ldd	r24, Y+15	; 0x0f
    3b04:	98 89       	ldd	r25, Y+16	; 0x10
    3b06:	d8 d3       	rcall	.+1968   	; 0x42b8 <__gesf2>
    3b08:	18 16       	cp	r1, r24
    3b0a:	3c f5       	brge	.+78     	; 0x3b5a <turn_right+0xd2>
	{
		//	__ticks = requested delay in 1/10 ms
		__ticks = (uint16_t) (__ms * 10.0);
    3b0c:	20 e0       	ldi	r18, 0x00	; 0
    3b0e:	30 e0       	ldi	r19, 0x00	; 0
    3b10:	40 e2       	ldi	r20, 0x20	; 32
    3b12:	51 e4       	ldi	r21, 0x41	; 65
    3b14:	69 85       	ldd	r22, Y+9	; 0x09
    3b16:	7a 85       	ldd	r23, Y+10	; 0x0a
    3b18:	8b 85       	ldd	r24, Y+11	; 0x0b
    3b1a:	9c 85       	ldd	r25, Y+12	; 0x0c
    3b1c:	d1 d3       	rcall	.+1954   	; 0x42c0 <__mulsf3>
    3b1e:	dc 01       	movw	r26, r24
    3b20:	cb 01       	movw	r24, r22
    3b22:	bc 01       	movw	r22, r24
    3b24:	cd 01       	movw	r24, r26
    3b26:	ea d2       	rcall	.+1492   	; 0x40fc <__fixunssfsi>
    3b28:	dc 01       	movw	r26, r24
    3b2a:	cb 01       	movw	r24, r22
    3b2c:	9a 8b       	std	Y+18, r25	; 0x12
    3b2e:	89 8b       	std	Y+17, r24	; 0x11
    3b30:	0f c0       	rjmp	.+30     	; 0x3b50 <turn_right+0xc8>
    3b32:	80 e7       	ldi	r24, 0x70	; 112
    3b34:	91 e0       	ldi	r25, 0x01	; 1
    3b36:	9c 8b       	std	Y+20, r25	; 0x14
    3b38:	8b 8b       	std	Y+19, r24	; 0x13
    milliseconds can be achieved.
 */
void
_delay_loop_2(uint16_t __count)
{
	__asm__ volatile (
    3b3a:	8b 89       	ldd	r24, Y+19	; 0x13
    3b3c:	9c 89       	ldd	r25, Y+20	; 0x14
    3b3e:	01 97       	sbiw	r24, 0x01	; 1
    3b40:	f1 f7       	brne	.-4      	; 0x3b3e <turn_right+0xb6>
    3b42:	9c 8b       	std	Y+20, r25	; 0x14
    3b44:	8b 8b       	std	Y+19, r24	; 0x13
		while(__ticks)
		{
			// wait 1/10 ms
			_delay_loop_2(((F_CPU) / 4e3) / 10);
			__ticks --;
    3b46:	89 89       	ldd	r24, Y+17	; 0x11
    3b48:	9a 89       	ldd	r25, Y+18	; 0x12
    3b4a:	01 97       	sbiw	r24, 0x01	; 1
    3b4c:	9a 8b       	std	Y+18, r25	; 0x12
    3b4e:	89 8b       	std	Y+17, r24	; 0x11
		__ticks = 1;
	else if (__tmp > 65535)
	{
		//	__ticks = requested delay in 1/10 ms
		__ticks = (uint16_t) (__ms * 10.0);
		while(__ticks)
    3b50:	89 89       	ldd	r24, Y+17	; 0x11
    3b52:	9a 89       	ldd	r25, Y+18	; 0x12
    3b54:	00 97       	sbiw	r24, 0x00	; 0
    3b56:	69 f7       	brne	.-38     	; 0x3b32 <turn_right+0xaa>
    3b58:	13 c0       	rjmp	.+38     	; 0x3b80 <turn_right+0xf8>
			__ticks --;
		}
		return;
	}
	else
		__ticks = (uint16_t)__tmp;
    3b5a:	6d 85       	ldd	r22, Y+13	; 0x0d
    3b5c:	7e 85       	ldd	r23, Y+14	; 0x0e
    3b5e:	8f 85       	ldd	r24, Y+15	; 0x0f
    3b60:	98 89       	ldd	r25, Y+16	; 0x10
    3b62:	cc d2       	rcall	.+1432   	; 0x40fc <__fixunssfsi>
    3b64:	dc 01       	movw	r26, r24
    3b66:	cb 01       	movw	r24, r22
    3b68:	9a 8b       	std	Y+18, r25	; 0x12
    3b6a:	89 8b       	std	Y+17, r24	; 0x11
    3b6c:	89 89       	ldd	r24, Y+17	; 0x11
    3b6e:	9a 89       	ldd	r25, Y+18	; 0x12
    3b70:	9e 8b       	std	Y+22, r25	; 0x16
    3b72:	8d 8b       	std	Y+21, r24	; 0x15
    3b74:	8d 89       	ldd	r24, Y+21	; 0x15
    3b76:	9e 89       	ldd	r25, Y+22	; 0x16
    3b78:	01 97       	sbiw	r24, 0x01	; 1
    3b7a:	f1 f7       	brne	.-4      	; 0x3b78 <turn_right+0xf0>
    3b7c:	9e 8b       	std	Y+22, r25	; 0x16
    3b7e:	8d 8b       	std	Y+21, r24	; 0x15
			_delay_ms(200);
		
			int z=1;
    3b80:	81 e0       	ldi	r24, 0x01	; 1
    3b82:	90 e0       	ldi	r25, 0x00	; 0
    3b84:	9a 83       	std	Y+2, r25	; 0x02
    3b86:	89 83       	std	Y+1, r24	; 0x01
			while(z==1)
    3b88:	a2 c0       	rjmp	.+324    	; 0x3cce <turn_right+0x246>
			{
				unsigned int left_sensor=ADC_Conversion(1);			//value from left sensor
    3b8a:	81 e0       	ldi	r24, 0x01	; 1
    3b8c:	0e 94 f4 0b 	call	0x17e8	; 0x17e8 <ADC_Conversion>
    3b90:	88 2f       	mov	r24, r24
    3b92:	90 e0       	ldi	r25, 0x00	; 0
    3b94:	9c 83       	std	Y+4, r25	; 0x04
    3b96:	8b 83       	std	Y+3, r24	; 0x03
				unsigned int right_sensor=ADC_Conversion(3);		//value from right sensor
    3b98:	83 e0       	ldi	r24, 0x03	; 3
    3b9a:	0e 94 f4 0b 	call	0x17e8	; 0x17e8 <ADC_Conversion>
    3b9e:	88 2f       	mov	r24, r24
    3ba0:	90 e0       	ldi	r25, 0x00	; 0
    3ba2:	9e 83       	std	Y+6, r25	; 0x06
    3ba4:	8d 83       	std	Y+5, r24	; 0x05
				unsigned int centre_sensor=ADC_Conversion(2);		//value from centre sensor
    3ba6:	82 e0       	ldi	r24, 0x02	; 2
    3ba8:	0e 94 f4 0b 	call	0x17e8	; 0x17e8 <ADC_Conversion>
    3bac:	88 2f       	mov	r24, r24
    3bae:	90 e0       	ldi	r25, 0x00	; 0
    3bb0:	98 87       	std	Y+8, r25	; 0x08
    3bb2:	8f 83       	std	Y+7, r24	; 0x07
				
				if(left_sensor < q)
    3bb4:	80 91 04 02 	lds	r24, 0x0204
    3bb8:	90 91 05 02 	lds	r25, 0x0205
    3bbc:	9c 01       	movw	r18, r24
    3bbe:	8b 81       	ldd	r24, Y+3	; 0x03
    3bc0:	9c 81       	ldd	r25, Y+4	; 0x04
    3bc2:	82 17       	cp	r24, r18
    3bc4:	93 07       	cpc	r25, r19
    3bc6:	38 f4       	brcc	.+14     	; 0x3bd6 <turn_right+0x14e>
				{
					velocity(100,100);
    3bc8:	64 e6       	ldi	r22, 0x64	; 100
    3bca:	84 e6       	ldi	r24, 0x64	; 100
    3bcc:	0e 94 2d 0d 	call	0x1a5a	; 0x1a5a <velocity>
					right();
    3bd0:	0e 94 56 10 	call	0x20ac	; 0x20ac <right>
    3bd4:	7c c0       	rjmp	.+248    	; 0x3cce <turn_right+0x246>
				}
				else
				{
					stop();
    3bd6:	0e 94 5f 10 	call	0x20be	; 0x20be <stop>
					lcd_cursor(1,17);
    3bda:	61 e1       	ldi	r22, 0x11	; 17
    3bdc:	81 e0       	ldi	r24, 0x01	; 1
    3bde:	0e 94 f5 09 	call	0x13ea	; 0x13ea <lcd_cursor>
					lcd_string("done");
    3be2:	8f e0       	ldi	r24, 0x0F	; 15
    3be4:	92 e0       	ldi	r25, 0x02	; 2
    3be6:	0e 94 d7 09 	call	0x13ae	; 0x13ae <lcd_string>
    3bea:	80 e0       	ldi	r24, 0x00	; 0
    3bec:	90 e0       	ldi	r25, 0x00	; 0
    3bee:	aa e7       	ldi	r26, 0x7A	; 122
    3bf0:	b4 e4       	ldi	r27, 0x44	; 68
    3bf2:	8f 8b       	std	Y+23, r24	; 0x17
    3bf4:	98 8f       	std	Y+24, r25	; 0x18
    3bf6:	a9 8f       	std	Y+25, r26	; 0x19
    3bf8:	ba 8f       	std	Y+26, r27	; 0x1a

	__builtin_avr_delay_cycles(__ticks_dc);

#else
	uint16_t __ticks;
	__tmp = ((F_CPU) / 4e3) * __ms;
    3bfa:	26 e6       	ldi	r18, 0x66	; 102
    3bfc:	36 e6       	ldi	r19, 0x66	; 102
    3bfe:	46 e6       	ldi	r20, 0x66	; 102
    3c00:	55 e4       	ldi	r21, 0x45	; 69
    3c02:	6f 89       	ldd	r22, Y+23	; 0x17
    3c04:	78 8d       	ldd	r23, Y+24	; 0x18
    3c06:	89 8d       	ldd	r24, Y+25	; 0x19
    3c08:	9a 8d       	ldd	r25, Y+26	; 0x1a
    3c0a:	5a d3       	rcall	.+1716   	; 0x42c0 <__mulsf3>
    3c0c:	dc 01       	movw	r26, r24
    3c0e:	cb 01       	movw	r24, r22
    3c10:	8b 8f       	std	Y+27, r24	; 0x1b
    3c12:	9c 8f       	std	Y+28, r25	; 0x1c
    3c14:	ad 8f       	std	Y+29, r26	; 0x1d
    3c16:	be 8f       	std	Y+30, r27	; 0x1e
	if (__tmp < 1.0)
    3c18:	20 e0       	ldi	r18, 0x00	; 0
    3c1a:	30 e0       	ldi	r19, 0x00	; 0
    3c1c:	40 e8       	ldi	r20, 0x80	; 128
    3c1e:	5f e3       	ldi	r21, 0x3F	; 63
    3c20:	6b 8d       	ldd	r22, Y+27	; 0x1b
    3c22:	7c 8d       	ldd	r23, Y+28	; 0x1c
    3c24:	8d 8d       	ldd	r24, Y+29	; 0x1d
    3c26:	9e 8d       	ldd	r25, Y+30	; 0x1e
    3c28:	f8 d1       	rcall	.+1008   	; 0x401a <__cmpsf2>
    3c2a:	88 23       	and	r24, r24
    3c2c:	2c f4       	brge	.+10     	; 0x3c38 <turn_right+0x1b0>
		__ticks = 1;
    3c2e:	81 e0       	ldi	r24, 0x01	; 1
    3c30:	90 e0       	ldi	r25, 0x00	; 0
    3c32:	98 a3       	std	Y+32, r25	; 0x20
    3c34:	8f 8f       	std	Y+31, r24	; 0x1f
    3c36:	3b c0       	rjmp	.+118    	; 0x3cae <turn_right+0x226>
	else if (__tmp > 65535)
    3c38:	20 e0       	ldi	r18, 0x00	; 0
    3c3a:	3f ef       	ldi	r19, 0xFF	; 255
    3c3c:	4f e7       	ldi	r20, 0x7F	; 127
    3c3e:	57 e4       	ldi	r21, 0x47	; 71
    3c40:	6b 8d       	ldd	r22, Y+27	; 0x1b
    3c42:	7c 8d       	ldd	r23, Y+28	; 0x1c
    3c44:	8d 8d       	ldd	r24, Y+29	; 0x1d
    3c46:	9e 8d       	ldd	r25, Y+30	; 0x1e
    3c48:	37 d3       	rcall	.+1646   	; 0x42b8 <__gesf2>
    3c4a:	18 16       	cp	r1, r24
    3c4c:	3c f5       	brge	.+78     	; 0x3c9c <turn_right+0x214>
	{
		//	__ticks = requested delay in 1/10 ms
		__ticks = (uint16_t) (__ms * 10.0);
    3c4e:	20 e0       	ldi	r18, 0x00	; 0
    3c50:	30 e0       	ldi	r19, 0x00	; 0
    3c52:	40 e2       	ldi	r20, 0x20	; 32
    3c54:	51 e4       	ldi	r21, 0x41	; 65
    3c56:	6f 89       	ldd	r22, Y+23	; 0x17
    3c58:	78 8d       	ldd	r23, Y+24	; 0x18
    3c5a:	89 8d       	ldd	r24, Y+25	; 0x19
    3c5c:	9a 8d       	ldd	r25, Y+26	; 0x1a
    3c5e:	30 d3       	rcall	.+1632   	; 0x42c0 <__mulsf3>
    3c60:	dc 01       	movw	r26, r24
    3c62:	cb 01       	movw	r24, r22
    3c64:	bc 01       	movw	r22, r24
    3c66:	cd 01       	movw	r24, r26
    3c68:	49 d2       	rcall	.+1170   	; 0x40fc <__fixunssfsi>
    3c6a:	dc 01       	movw	r26, r24
    3c6c:	cb 01       	movw	r24, r22
    3c6e:	98 a3       	std	Y+32, r25	; 0x20
    3c70:	8f 8f       	std	Y+31, r24	; 0x1f
    3c72:	0f c0       	rjmp	.+30     	; 0x3c92 <turn_right+0x20a>
    3c74:	80 e7       	ldi	r24, 0x70	; 112
    3c76:	91 e0       	ldi	r25, 0x01	; 1
    3c78:	9a a3       	std	Y+34, r25	; 0x22
    3c7a:	89 a3       	std	Y+33, r24	; 0x21
    3c7c:	89 a1       	ldd	r24, Y+33	; 0x21
    3c7e:	9a a1       	ldd	r25, Y+34	; 0x22
    3c80:	01 97       	sbiw	r24, 0x01	; 1
    3c82:	f1 f7       	brne	.-4      	; 0x3c80 <turn_right+0x1f8>
    3c84:	9a a3       	std	Y+34, r25	; 0x22
    3c86:	89 a3       	std	Y+33, r24	; 0x21
		while(__ticks)
		{
			// wait 1/10 ms
			_delay_loop_2(((F_CPU) / 4e3) / 10);
			__ticks --;
    3c88:	8f 8d       	ldd	r24, Y+31	; 0x1f
    3c8a:	98 a1       	ldd	r25, Y+32	; 0x20
    3c8c:	01 97       	sbiw	r24, 0x01	; 1
    3c8e:	98 a3       	std	Y+32, r25	; 0x20
    3c90:	8f 8f       	std	Y+31, r24	; 0x1f
		__ticks = 1;
	else if (__tmp > 65535)
	{
		//	__ticks = requested delay in 1/10 ms
		__ticks = (uint16_t) (__ms * 10.0);
		while(__ticks)
    3c92:	8f 8d       	ldd	r24, Y+31	; 0x1f
    3c94:	98 a1       	ldd	r25, Y+32	; 0x20
    3c96:	00 97       	sbiw	r24, 0x00	; 0
    3c98:	69 f7       	brne	.-38     	; 0x3c74 <turn_right+0x1ec>
    3c9a:	13 c0       	rjmp	.+38     	; 0x3cc2 <turn_right+0x23a>
			__ticks --;
		}
		return;
	}
	else
		__ticks = (uint16_t)__tmp;
    3c9c:	6b 8d       	ldd	r22, Y+27	; 0x1b
    3c9e:	7c 8d       	ldd	r23, Y+28	; 0x1c
    3ca0:	8d 8d       	ldd	r24, Y+29	; 0x1d
    3ca2:	9e 8d       	ldd	r25, Y+30	; 0x1e
    3ca4:	2b d2       	rcall	.+1110   	; 0x40fc <__fixunssfsi>
    3ca6:	dc 01       	movw	r26, r24
    3ca8:	cb 01       	movw	r24, r22
    3caa:	98 a3       	std	Y+32, r25	; 0x20
    3cac:	8f 8f       	std	Y+31, r24	; 0x1f
    3cae:	8f 8d       	ldd	r24, Y+31	; 0x1f
    3cb0:	98 a1       	ldd	r25, Y+32	; 0x20
    3cb2:	9c a3       	std	Y+36, r25	; 0x24
    3cb4:	8b a3       	std	Y+35, r24	; 0x23
    3cb6:	8b a1       	ldd	r24, Y+35	; 0x23
    3cb8:	9c a1       	ldd	r25, Y+36	; 0x24
    3cba:	01 97       	sbiw	r24, 0x01	; 1
    3cbc:	f1 f7       	brne	.-4      	; 0x3cba <turn_right+0x232>
    3cbe:	9c a3       	std	Y+36, r25	; 0x24
    3cc0:	8b a3       	std	Y+35, r24	; 0x23
					_delay_ms(1000);
					z++;
    3cc2:	89 81       	ldd	r24, Y+1	; 0x01
    3cc4:	9a 81       	ldd	r25, Y+2	; 0x02
    3cc6:	01 96       	adiw	r24, 0x01	; 1
    3cc8:	9a 83       	std	Y+2, r25	; 0x02
    3cca:	89 83       	std	Y+1, r24	; 0x01
					break;
    3ccc:	06 c0       	rjmp	.+12     	; 0x3cda <turn_right+0x252>
			forward_mm(25);
			right();
			_delay_ms(200);
		
			int z=1;
			while(z==1)
    3cce:	89 81       	ldd	r24, Y+1	; 0x01
    3cd0:	9a 81       	ldd	r25, Y+2	; 0x02
    3cd2:	81 30       	cpi	r24, 0x01	; 1
    3cd4:	91 05       	cpc	r25, r1
    3cd6:	09 f4       	brne	.+2      	; 0x3cda <turn_right+0x252>
    3cd8:	58 cf       	rjmp	.-336    	; 0x3b8a <turn_right+0x102>
					z++;
					break;
				}
			}
	
		}
    3cda:	a4 96       	adiw	r28, 0x24	; 36
    3cdc:	0f b6       	in	r0, 0x3f	; 63
    3cde:	f8 94       	cli
    3ce0:	de bf       	out	0x3e, r29	; 62
    3ce2:	0f be       	out	0x3f, r0	; 63
    3ce4:	cd bf       	out	0x3d, r28	; 61
    3ce6:	df 91       	pop	r29
    3ce8:	cf 91       	pop	r28
    3cea:	08 95       	ret

00003cec <turn_left>:


		void turn_left()
		{
    3cec:	cf 93       	push	r28
    3cee:	df 93       	push	r29
    3cf0:	cd b7       	in	r28, 0x3d	; 61
    3cf2:	de b7       	in	r29, 0x3e	; 62
    3cf4:	a4 97       	sbiw	r28, 0x24	; 36
    3cf6:	0f b6       	in	r0, 0x3f	; 63
    3cf8:	f8 94       	cli
    3cfa:	de bf       	out	0x3e, r29	; 62
    3cfc:	0f be       	out	0x3f, r0	; 63
    3cfe:	cd bf       	out	0x3d, r28	; 61
			forward_mm(25);
    3d00:	89 e1       	ldi	r24, 0x19	; 25
    3d02:	90 e0       	ldi	r25, 0x00	; 0
    3d04:	0e 94 48 11 	call	0x2290	; 0x2290 <forward_mm>
			left();
    3d08:	0e 94 4d 10 	call	0x209a	; 0x209a <left>
    3d0c:	80 e0       	ldi	r24, 0x00	; 0
    3d0e:	90 e0       	ldi	r25, 0x00	; 0
    3d10:	a8 e4       	ldi	r26, 0x48	; 72
    3d12:	b3 e4       	ldi	r27, 0x43	; 67
    3d14:	89 87       	std	Y+9, r24	; 0x09
    3d16:	9a 87       	std	Y+10, r25	; 0x0a
    3d18:	ab 87       	std	Y+11, r26	; 0x0b
    3d1a:	bc 87       	std	Y+12, r27	; 0x0c

	__builtin_avr_delay_cycles(__ticks_dc);

#else
	uint16_t __ticks;
	__tmp = ((F_CPU) / 4e3) * __ms;
    3d1c:	26 e6       	ldi	r18, 0x66	; 102
    3d1e:	36 e6       	ldi	r19, 0x66	; 102
    3d20:	46 e6       	ldi	r20, 0x66	; 102
    3d22:	55 e4       	ldi	r21, 0x45	; 69
    3d24:	69 85       	ldd	r22, Y+9	; 0x09
    3d26:	7a 85       	ldd	r23, Y+10	; 0x0a
    3d28:	8b 85       	ldd	r24, Y+11	; 0x0b
    3d2a:	9c 85       	ldd	r25, Y+12	; 0x0c
    3d2c:	c9 d2       	rcall	.+1426   	; 0x42c0 <__mulsf3>
    3d2e:	dc 01       	movw	r26, r24
    3d30:	cb 01       	movw	r24, r22
    3d32:	8d 87       	std	Y+13, r24	; 0x0d
    3d34:	9e 87       	std	Y+14, r25	; 0x0e
    3d36:	af 87       	std	Y+15, r26	; 0x0f
    3d38:	b8 8b       	std	Y+16, r27	; 0x10
	if (__tmp < 1.0)
    3d3a:	20 e0       	ldi	r18, 0x00	; 0
    3d3c:	30 e0       	ldi	r19, 0x00	; 0
    3d3e:	40 e8       	ldi	r20, 0x80	; 128
    3d40:	5f e3       	ldi	r21, 0x3F	; 63
    3d42:	6d 85       	ldd	r22, Y+13	; 0x0d
    3d44:	7e 85       	ldd	r23, Y+14	; 0x0e
    3d46:	8f 85       	ldd	r24, Y+15	; 0x0f
    3d48:	98 89       	ldd	r25, Y+16	; 0x10
    3d4a:	67 d1       	rcall	.+718    	; 0x401a <__cmpsf2>
    3d4c:	88 23       	and	r24, r24
    3d4e:	2c f4       	brge	.+10     	; 0x3d5a <turn_left+0x6e>
		__ticks = 1;
    3d50:	81 e0       	ldi	r24, 0x01	; 1
    3d52:	90 e0       	ldi	r25, 0x00	; 0
    3d54:	9a 8b       	std	Y+18, r25	; 0x12
    3d56:	89 8b       	std	Y+17, r24	; 0x11
    3d58:	3b c0       	rjmp	.+118    	; 0x3dd0 <turn_left+0xe4>
	else if (__tmp > 65535)
    3d5a:	20 e0       	ldi	r18, 0x00	; 0
    3d5c:	3f ef       	ldi	r19, 0xFF	; 255
    3d5e:	4f e7       	ldi	r20, 0x7F	; 127
    3d60:	57 e4       	ldi	r21, 0x47	; 71
    3d62:	6d 85       	ldd	r22, Y+13	; 0x0d
    3d64:	7e 85       	ldd	r23, Y+14	; 0x0e
    3d66:	8f 85       	ldd	r24, Y+15	; 0x0f
    3d68:	98 89       	ldd	r25, Y+16	; 0x10
    3d6a:	a6 d2       	rcall	.+1356   	; 0x42b8 <__gesf2>
    3d6c:	18 16       	cp	r1, r24
    3d6e:	3c f5       	brge	.+78     	; 0x3dbe <turn_left+0xd2>
	{
		//	__ticks = requested delay in 1/10 ms
		__ticks = (uint16_t) (__ms * 10.0);
    3d70:	20 e0       	ldi	r18, 0x00	; 0
    3d72:	30 e0       	ldi	r19, 0x00	; 0
    3d74:	40 e2       	ldi	r20, 0x20	; 32
    3d76:	51 e4       	ldi	r21, 0x41	; 65
    3d78:	69 85       	ldd	r22, Y+9	; 0x09
    3d7a:	7a 85       	ldd	r23, Y+10	; 0x0a
    3d7c:	8b 85       	ldd	r24, Y+11	; 0x0b
    3d7e:	9c 85       	ldd	r25, Y+12	; 0x0c
    3d80:	9f d2       	rcall	.+1342   	; 0x42c0 <__mulsf3>
    3d82:	dc 01       	movw	r26, r24
    3d84:	cb 01       	movw	r24, r22
    3d86:	bc 01       	movw	r22, r24
    3d88:	cd 01       	movw	r24, r26
    3d8a:	b8 d1       	rcall	.+880    	; 0x40fc <__fixunssfsi>
    3d8c:	dc 01       	movw	r26, r24
    3d8e:	cb 01       	movw	r24, r22
    3d90:	9a 8b       	std	Y+18, r25	; 0x12
    3d92:	89 8b       	std	Y+17, r24	; 0x11
    3d94:	0f c0       	rjmp	.+30     	; 0x3db4 <turn_left+0xc8>
    3d96:	80 e7       	ldi	r24, 0x70	; 112
    3d98:	91 e0       	ldi	r25, 0x01	; 1
    3d9a:	9c 8b       	std	Y+20, r25	; 0x14
    3d9c:	8b 8b       	std	Y+19, r24	; 0x13
    3d9e:	8b 89       	ldd	r24, Y+19	; 0x13
    3da0:	9c 89       	ldd	r25, Y+20	; 0x14
    3da2:	01 97       	sbiw	r24, 0x01	; 1
    3da4:	f1 f7       	brne	.-4      	; 0x3da2 <turn_left+0xb6>
    3da6:	9c 8b       	std	Y+20, r25	; 0x14
    3da8:	8b 8b       	std	Y+19, r24	; 0x13
		while(__ticks)
		{
			// wait 1/10 ms
			_delay_loop_2(((F_CPU) / 4e3) / 10);
			__ticks --;
    3daa:	89 89       	ldd	r24, Y+17	; 0x11
    3dac:	9a 89       	ldd	r25, Y+18	; 0x12
    3dae:	01 97       	sbiw	r24, 0x01	; 1
    3db0:	9a 8b       	std	Y+18, r25	; 0x12
    3db2:	89 8b       	std	Y+17, r24	; 0x11
		__ticks = 1;
	else if (__tmp > 65535)
	{
		//	__ticks = requested delay in 1/10 ms
		__ticks = (uint16_t) (__ms * 10.0);
		while(__ticks)
    3db4:	89 89       	ldd	r24, Y+17	; 0x11
    3db6:	9a 89       	ldd	r25, Y+18	; 0x12
    3db8:	00 97       	sbiw	r24, 0x00	; 0
    3dba:	69 f7       	brne	.-38     	; 0x3d96 <turn_left+0xaa>
    3dbc:	13 c0       	rjmp	.+38     	; 0x3de4 <turn_left+0xf8>
			__ticks --;
		}
		return;
	}
	else
		__ticks = (uint16_t)__tmp;
    3dbe:	6d 85       	ldd	r22, Y+13	; 0x0d
    3dc0:	7e 85       	ldd	r23, Y+14	; 0x0e
    3dc2:	8f 85       	ldd	r24, Y+15	; 0x0f
    3dc4:	98 89       	ldd	r25, Y+16	; 0x10
    3dc6:	9a d1       	rcall	.+820    	; 0x40fc <__fixunssfsi>
    3dc8:	dc 01       	movw	r26, r24
    3dca:	cb 01       	movw	r24, r22
    3dcc:	9a 8b       	std	Y+18, r25	; 0x12
    3dce:	89 8b       	std	Y+17, r24	; 0x11
    3dd0:	89 89       	ldd	r24, Y+17	; 0x11
    3dd2:	9a 89       	ldd	r25, Y+18	; 0x12
    3dd4:	9e 8b       	std	Y+22, r25	; 0x16
    3dd6:	8d 8b       	std	Y+21, r24	; 0x15
    3dd8:	8d 89       	ldd	r24, Y+21	; 0x15
    3dda:	9e 89       	ldd	r25, Y+22	; 0x16
    3ddc:	01 97       	sbiw	r24, 0x01	; 1
    3dde:	f1 f7       	brne	.-4      	; 0x3ddc <turn_left+0xf0>
    3de0:	9e 8b       	std	Y+22, r25	; 0x16
    3de2:	8d 8b       	std	Y+21, r24	; 0x15
			_delay_ms(200);
		
			int z = 1;
    3de4:	81 e0       	ldi	r24, 0x01	; 1
    3de6:	90 e0       	ldi	r25, 0x00	; 0
    3de8:	9a 83       	std	Y+2, r25	; 0x02
    3dea:	89 83       	std	Y+1, r24	; 0x01
			while(z==1)
    3dec:	a2 c0       	rjmp	.+324    	; 0x3f32 <turn_left+0x246>
			{
				
				unsigned int left_sensor=ADC_Conversion(1);			//value from left sensor
    3dee:	81 e0       	ldi	r24, 0x01	; 1
    3df0:	0e 94 f4 0b 	call	0x17e8	; 0x17e8 <ADC_Conversion>
    3df4:	88 2f       	mov	r24, r24
    3df6:	90 e0       	ldi	r25, 0x00	; 0
    3df8:	9c 83       	std	Y+4, r25	; 0x04
    3dfa:	8b 83       	std	Y+3, r24	; 0x03
				unsigned int right_sensor=ADC_Conversion(3);		//value from right sensor
    3dfc:	83 e0       	ldi	r24, 0x03	; 3
    3dfe:	0e 94 f4 0b 	call	0x17e8	; 0x17e8 <ADC_Conversion>
    3e02:	88 2f       	mov	r24, r24
    3e04:	90 e0       	ldi	r25, 0x00	; 0
    3e06:	9e 83       	std	Y+6, r25	; 0x06
    3e08:	8d 83       	std	Y+5, r24	; 0x05
				unsigned int centre_sensor=ADC_Conversion(2);		//value from centre sensor
    3e0a:	82 e0       	ldi	r24, 0x02	; 2
    3e0c:	0e 94 f4 0b 	call	0x17e8	; 0x17e8 <ADC_Conversion>
    3e10:	88 2f       	mov	r24, r24
    3e12:	90 e0       	ldi	r25, 0x00	; 0
    3e14:	98 87       	std	Y+8, r25	; 0x08
    3e16:	8f 83       	std	Y+7, r24	; 0x07
				
				if(left_sensor < q)
    3e18:	80 91 04 02 	lds	r24, 0x0204
    3e1c:	90 91 05 02 	lds	r25, 0x0205
    3e20:	9c 01       	movw	r18, r24
    3e22:	8b 81       	ldd	r24, Y+3	; 0x03
    3e24:	9c 81       	ldd	r25, Y+4	; 0x04
    3e26:	82 17       	cp	r24, r18
    3e28:	93 07       	cpc	r25, r19
    3e2a:	38 f4       	brcc	.+14     	; 0x3e3a <turn_left+0x14e>
				{
					velocity(100,100);
    3e2c:	64 e6       	ldi	r22, 0x64	; 100
    3e2e:	84 e6       	ldi	r24, 0x64	; 100
    3e30:	0e 94 2d 0d 	call	0x1a5a	; 0x1a5a <velocity>
					left();
    3e34:	0e 94 4d 10 	call	0x209a	; 0x209a <left>
    3e38:	7c c0       	rjmp	.+248    	; 0x3f32 <turn_left+0x246>
				}
				else
				{
					stop();
    3e3a:	0e 94 5f 10 	call	0x20be	; 0x20be <stop>
					lcd_cursor(1,17);
    3e3e:	61 e1       	ldi	r22, 0x11	; 17
    3e40:	81 e0       	ldi	r24, 0x01	; 1
    3e42:	0e 94 f5 09 	call	0x13ea	; 0x13ea <lcd_cursor>
					lcd_string("done");	
    3e46:	8f e0       	ldi	r24, 0x0F	; 15
    3e48:	92 e0       	ldi	r25, 0x02	; 2
    3e4a:	0e 94 d7 09 	call	0x13ae	; 0x13ae <lcd_string>
    3e4e:	80 e0       	ldi	r24, 0x00	; 0
    3e50:	90 e0       	ldi	r25, 0x00	; 0
    3e52:	aa e7       	ldi	r26, 0x7A	; 122
    3e54:	b4 e4       	ldi	r27, 0x44	; 68
    3e56:	8f 8b       	std	Y+23, r24	; 0x17
    3e58:	98 8f       	std	Y+24, r25	; 0x18
    3e5a:	a9 8f       	std	Y+25, r26	; 0x19
    3e5c:	ba 8f       	std	Y+26, r27	; 0x1a

	__builtin_avr_delay_cycles(__ticks_dc);

#else
	uint16_t __ticks;
	__tmp = ((F_CPU) / 4e3) * __ms;
    3e5e:	26 e6       	ldi	r18, 0x66	; 102
    3e60:	36 e6       	ldi	r19, 0x66	; 102
    3e62:	46 e6       	ldi	r20, 0x66	; 102
    3e64:	55 e4       	ldi	r21, 0x45	; 69
    3e66:	6f 89       	ldd	r22, Y+23	; 0x17
    3e68:	78 8d       	ldd	r23, Y+24	; 0x18
    3e6a:	89 8d       	ldd	r24, Y+25	; 0x19
    3e6c:	9a 8d       	ldd	r25, Y+26	; 0x1a
    3e6e:	28 d2       	rcall	.+1104   	; 0x42c0 <__mulsf3>
    3e70:	dc 01       	movw	r26, r24
    3e72:	cb 01       	movw	r24, r22
    3e74:	8b 8f       	std	Y+27, r24	; 0x1b
    3e76:	9c 8f       	std	Y+28, r25	; 0x1c
    3e78:	ad 8f       	std	Y+29, r26	; 0x1d
    3e7a:	be 8f       	std	Y+30, r27	; 0x1e
	if (__tmp < 1.0)
    3e7c:	20 e0       	ldi	r18, 0x00	; 0
    3e7e:	30 e0       	ldi	r19, 0x00	; 0
    3e80:	40 e8       	ldi	r20, 0x80	; 128
    3e82:	5f e3       	ldi	r21, 0x3F	; 63
    3e84:	6b 8d       	ldd	r22, Y+27	; 0x1b
    3e86:	7c 8d       	ldd	r23, Y+28	; 0x1c
    3e88:	8d 8d       	ldd	r24, Y+29	; 0x1d
    3e8a:	9e 8d       	ldd	r25, Y+30	; 0x1e
    3e8c:	c6 d0       	rcall	.+396    	; 0x401a <__cmpsf2>
    3e8e:	88 23       	and	r24, r24
    3e90:	2c f4       	brge	.+10     	; 0x3e9c <turn_left+0x1b0>
		__ticks = 1;
    3e92:	81 e0       	ldi	r24, 0x01	; 1
    3e94:	90 e0       	ldi	r25, 0x00	; 0
    3e96:	98 a3       	std	Y+32, r25	; 0x20
    3e98:	8f 8f       	std	Y+31, r24	; 0x1f
    3e9a:	3b c0       	rjmp	.+118    	; 0x3f12 <turn_left+0x226>
	else if (__tmp > 65535)
    3e9c:	20 e0       	ldi	r18, 0x00	; 0
    3e9e:	3f ef       	ldi	r19, 0xFF	; 255
    3ea0:	4f e7       	ldi	r20, 0x7F	; 127
    3ea2:	57 e4       	ldi	r21, 0x47	; 71
    3ea4:	6b 8d       	ldd	r22, Y+27	; 0x1b
    3ea6:	7c 8d       	ldd	r23, Y+28	; 0x1c
    3ea8:	8d 8d       	ldd	r24, Y+29	; 0x1d
    3eaa:	9e 8d       	ldd	r25, Y+30	; 0x1e
    3eac:	05 d2       	rcall	.+1034   	; 0x42b8 <__gesf2>
    3eae:	18 16       	cp	r1, r24
    3eb0:	3c f5       	brge	.+78     	; 0x3f00 <turn_left+0x214>
	{
		//	__ticks = requested delay in 1/10 ms
		__ticks = (uint16_t) (__ms * 10.0);
    3eb2:	20 e0       	ldi	r18, 0x00	; 0
    3eb4:	30 e0       	ldi	r19, 0x00	; 0
    3eb6:	40 e2       	ldi	r20, 0x20	; 32
    3eb8:	51 e4       	ldi	r21, 0x41	; 65
    3eba:	6f 89       	ldd	r22, Y+23	; 0x17
    3ebc:	78 8d       	ldd	r23, Y+24	; 0x18
    3ebe:	89 8d       	ldd	r24, Y+25	; 0x19
    3ec0:	9a 8d       	ldd	r25, Y+26	; 0x1a
    3ec2:	fe d1       	rcall	.+1020   	; 0x42c0 <__mulsf3>
    3ec4:	dc 01       	movw	r26, r24
    3ec6:	cb 01       	movw	r24, r22
    3ec8:	bc 01       	movw	r22, r24
    3eca:	cd 01       	movw	r24, r26
    3ecc:	17 d1       	rcall	.+558    	; 0x40fc <__fixunssfsi>
    3ece:	dc 01       	movw	r26, r24
    3ed0:	cb 01       	movw	r24, r22
    3ed2:	98 a3       	std	Y+32, r25	; 0x20
    3ed4:	8f 8f       	std	Y+31, r24	; 0x1f
    3ed6:	0f c0       	rjmp	.+30     	; 0x3ef6 <turn_left+0x20a>
    3ed8:	80 e7       	ldi	r24, 0x70	; 112
    3eda:	91 e0       	ldi	r25, 0x01	; 1
    3edc:	9a a3       	std	Y+34, r25	; 0x22
    3ede:	89 a3       	std	Y+33, r24	; 0x21
    3ee0:	89 a1       	ldd	r24, Y+33	; 0x21
    3ee2:	9a a1       	ldd	r25, Y+34	; 0x22
    3ee4:	01 97       	sbiw	r24, 0x01	; 1
    3ee6:	f1 f7       	brne	.-4      	; 0x3ee4 <turn_left+0x1f8>
    3ee8:	9a a3       	std	Y+34, r25	; 0x22
    3eea:	89 a3       	std	Y+33, r24	; 0x21
		while(__ticks)
		{
			// wait 1/10 ms
			_delay_loop_2(((F_CPU) / 4e3) / 10);
			__ticks --;
    3eec:	8f 8d       	ldd	r24, Y+31	; 0x1f
    3eee:	98 a1       	ldd	r25, Y+32	; 0x20
    3ef0:	01 97       	sbiw	r24, 0x01	; 1
    3ef2:	98 a3       	std	Y+32, r25	; 0x20
    3ef4:	8f 8f       	std	Y+31, r24	; 0x1f
		__ticks = 1;
	else if (__tmp > 65535)
	{
		//	__ticks = requested delay in 1/10 ms
		__ticks = (uint16_t) (__ms * 10.0);
		while(__ticks)
    3ef6:	8f 8d       	ldd	r24, Y+31	; 0x1f
    3ef8:	98 a1       	ldd	r25, Y+32	; 0x20
    3efa:	00 97       	sbiw	r24, 0x00	; 0
    3efc:	69 f7       	brne	.-38     	; 0x3ed8 <turn_left+0x1ec>
    3efe:	13 c0       	rjmp	.+38     	; 0x3f26 <turn_left+0x23a>
			__ticks --;
		}
		return;
	}
	else
		__ticks = (uint16_t)__tmp;
    3f00:	6b 8d       	ldd	r22, Y+27	; 0x1b
    3f02:	7c 8d       	ldd	r23, Y+28	; 0x1c
    3f04:	8d 8d       	ldd	r24, Y+29	; 0x1d
    3f06:	9e 8d       	ldd	r25, Y+30	; 0x1e
    3f08:	f9 d0       	rcall	.+498    	; 0x40fc <__fixunssfsi>
    3f0a:	dc 01       	movw	r26, r24
    3f0c:	cb 01       	movw	r24, r22
    3f0e:	98 a3       	std	Y+32, r25	; 0x20
    3f10:	8f 8f       	std	Y+31, r24	; 0x1f
    3f12:	8f 8d       	ldd	r24, Y+31	; 0x1f
    3f14:	98 a1       	ldd	r25, Y+32	; 0x20
    3f16:	9c a3       	std	Y+36, r25	; 0x24
    3f18:	8b a3       	std	Y+35, r24	; 0x23
    3f1a:	8b a1       	ldd	r24, Y+35	; 0x23
    3f1c:	9c a1       	ldd	r25, Y+36	; 0x24
    3f1e:	01 97       	sbiw	r24, 0x01	; 1
    3f20:	f1 f7       	brne	.-4      	; 0x3f1e <turn_left+0x232>
    3f22:	9c a3       	std	Y+36, r25	; 0x24
    3f24:	8b a3       	std	Y+35, r24	; 0x23
					_delay_ms(1000);
					z++;
    3f26:	89 81       	ldd	r24, Y+1	; 0x01
    3f28:	9a 81       	ldd	r25, Y+2	; 0x02
    3f2a:	01 96       	adiw	r24, 0x01	; 1
    3f2c:	9a 83       	std	Y+2, r25	; 0x02
    3f2e:	89 83       	std	Y+1, r24	; 0x01
					break;
    3f30:	06 c0       	rjmp	.+12     	; 0x3f3e <turn_left+0x252>
			forward_mm(25);
			left();
			_delay_ms(200);
		
			int z = 1;
			while(z==1)
    3f32:	89 81       	ldd	r24, Y+1	; 0x01
    3f34:	9a 81       	ldd	r25, Y+2	; 0x02
    3f36:	81 30       	cpi	r24, 0x01	; 1
    3f38:	91 05       	cpc	r25, r1
    3f3a:	09 f4       	brne	.+2      	; 0x3f3e <turn_left+0x252>
    3f3c:	58 cf       	rjmp	.-336    	; 0x3dee <turn_left+0x102>
					z++;
					break;
				}
			}
	
		}
    3f3e:	a4 96       	adiw	r28, 0x24	; 36
    3f40:	0f b6       	in	r0, 0x3f	; 63
    3f42:	f8 94       	cli
    3f44:	de bf       	out	0x3e, r29	; 62
    3f46:	0f be       	out	0x3f, r0	; 63
    3f48:	cd bf       	out	0x3d, r28	; 61
    3f4a:	df 91       	pop	r29
    3f4c:	cf 91       	pop	r28
    3f4e:	08 95       	ret

00003f50 <__subsf3>:
    3f50:	50 58       	subi	r21, 0x80	; 128

00003f52 <__addsf3>:
    3f52:	bb 27       	eor	r27, r27
    3f54:	aa 27       	eor	r26, r26
    3f56:	0e d0       	rcall	.+28     	; 0x3f74 <__addsf3x>
    3f58:	75 c1       	rjmp	.+746    	; 0x4244 <__fp_round>
    3f5a:	66 d1       	rcall	.+716    	; 0x4228 <__fp_pscA>
    3f5c:	30 f0       	brcs	.+12     	; 0x3f6a <__addsf3+0x18>
    3f5e:	6b d1       	rcall	.+726    	; 0x4236 <__fp_pscB>
    3f60:	20 f0       	brcs	.+8      	; 0x3f6a <__addsf3+0x18>
    3f62:	31 f4       	brne	.+12     	; 0x3f70 <__addsf3+0x1e>
    3f64:	9f 3f       	cpi	r25, 0xFF	; 255
    3f66:	11 f4       	brne	.+4      	; 0x3f6c <__addsf3+0x1a>
    3f68:	1e f4       	brtc	.+6      	; 0x3f70 <__addsf3+0x1e>
    3f6a:	5b c1       	rjmp	.+694    	; 0x4222 <__fp_nan>
    3f6c:	0e f4       	brtc	.+2      	; 0x3f70 <__addsf3+0x1e>
    3f6e:	e0 95       	com	r30
    3f70:	e7 fb       	bst	r30, 7
    3f72:	51 c1       	rjmp	.+674    	; 0x4216 <__fp_inf>

00003f74 <__addsf3x>:
    3f74:	e9 2f       	mov	r30, r25
    3f76:	77 d1       	rcall	.+750    	; 0x4266 <__fp_split3>
    3f78:	80 f3       	brcs	.-32     	; 0x3f5a <__addsf3+0x8>
    3f7a:	ba 17       	cp	r27, r26
    3f7c:	62 07       	cpc	r22, r18
    3f7e:	73 07       	cpc	r23, r19
    3f80:	84 07       	cpc	r24, r20
    3f82:	95 07       	cpc	r25, r21
    3f84:	18 f0       	brcs	.+6      	; 0x3f8c <__addsf3x+0x18>
    3f86:	71 f4       	brne	.+28     	; 0x3fa4 <__addsf3x+0x30>
    3f88:	9e f5       	brtc	.+102    	; 0x3ff0 <__addsf3x+0x7c>
    3f8a:	8f c1       	rjmp	.+798    	; 0x42aa <__fp_zero>
    3f8c:	0e f4       	brtc	.+2      	; 0x3f90 <__addsf3x+0x1c>
    3f8e:	e0 95       	com	r30
    3f90:	0b 2e       	mov	r0, r27
    3f92:	ba 2f       	mov	r27, r26
    3f94:	a0 2d       	mov	r26, r0
    3f96:	0b 01       	movw	r0, r22
    3f98:	b9 01       	movw	r22, r18
    3f9a:	90 01       	movw	r18, r0
    3f9c:	0c 01       	movw	r0, r24
    3f9e:	ca 01       	movw	r24, r20
    3fa0:	a0 01       	movw	r20, r0
    3fa2:	11 24       	eor	r1, r1
    3fa4:	ff 27       	eor	r31, r31
    3fa6:	59 1b       	sub	r21, r25
    3fa8:	99 f0       	breq	.+38     	; 0x3fd0 <__addsf3x+0x5c>
    3faa:	59 3f       	cpi	r21, 0xF9	; 249
    3fac:	50 f4       	brcc	.+20     	; 0x3fc2 <__addsf3x+0x4e>
    3fae:	50 3e       	cpi	r21, 0xE0	; 224
    3fb0:	68 f1       	brcs	.+90     	; 0x400c <__addsf3x+0x98>
    3fb2:	1a 16       	cp	r1, r26
    3fb4:	f0 40       	sbci	r31, 0x00	; 0
    3fb6:	a2 2f       	mov	r26, r18
    3fb8:	23 2f       	mov	r18, r19
    3fba:	34 2f       	mov	r19, r20
    3fbc:	44 27       	eor	r20, r20
    3fbe:	58 5f       	subi	r21, 0xF8	; 248
    3fc0:	f3 cf       	rjmp	.-26     	; 0x3fa8 <__addsf3x+0x34>
    3fc2:	46 95       	lsr	r20
    3fc4:	37 95       	ror	r19
    3fc6:	27 95       	ror	r18
    3fc8:	a7 95       	ror	r26
    3fca:	f0 40       	sbci	r31, 0x00	; 0
    3fcc:	53 95       	inc	r21
    3fce:	c9 f7       	brne	.-14     	; 0x3fc2 <__addsf3x+0x4e>
    3fd0:	7e f4       	brtc	.+30     	; 0x3ff0 <__addsf3x+0x7c>
    3fd2:	1f 16       	cp	r1, r31
    3fd4:	ba 0b       	sbc	r27, r26
    3fd6:	62 0b       	sbc	r22, r18
    3fd8:	73 0b       	sbc	r23, r19
    3fda:	84 0b       	sbc	r24, r20
    3fdc:	ba f0       	brmi	.+46     	; 0x400c <__addsf3x+0x98>
    3fde:	91 50       	subi	r25, 0x01	; 1
    3fe0:	a1 f0       	breq	.+40     	; 0x400a <__addsf3x+0x96>
    3fe2:	ff 0f       	add	r31, r31
    3fe4:	bb 1f       	adc	r27, r27
    3fe6:	66 1f       	adc	r22, r22
    3fe8:	77 1f       	adc	r23, r23
    3fea:	88 1f       	adc	r24, r24
    3fec:	c2 f7       	brpl	.-16     	; 0x3fde <__addsf3x+0x6a>
    3fee:	0e c0       	rjmp	.+28     	; 0x400c <__addsf3x+0x98>
    3ff0:	ba 0f       	add	r27, r26
    3ff2:	62 1f       	adc	r22, r18
    3ff4:	73 1f       	adc	r23, r19
    3ff6:	84 1f       	adc	r24, r20
    3ff8:	48 f4       	brcc	.+18     	; 0x400c <__addsf3x+0x98>
    3ffa:	87 95       	ror	r24
    3ffc:	77 95       	ror	r23
    3ffe:	67 95       	ror	r22
    4000:	b7 95       	ror	r27
    4002:	f7 95       	ror	r31
    4004:	9e 3f       	cpi	r25, 0xFE	; 254
    4006:	08 f0       	brcs	.+2      	; 0x400a <__addsf3x+0x96>
    4008:	b3 cf       	rjmp	.-154    	; 0x3f70 <__addsf3+0x1e>
    400a:	93 95       	inc	r25
    400c:	88 0f       	add	r24, r24
    400e:	08 f0       	brcs	.+2      	; 0x4012 <__addsf3x+0x9e>
    4010:	99 27       	eor	r25, r25
    4012:	ee 0f       	add	r30, r30
    4014:	97 95       	ror	r25
    4016:	87 95       	ror	r24
    4018:	08 95       	ret

0000401a <__cmpsf2>:
    401a:	d9 d0       	rcall	.+434    	; 0x41ce <__fp_cmp>
    401c:	08 f4       	brcc	.+2      	; 0x4020 <__cmpsf2+0x6>
    401e:	81 e0       	ldi	r24, 0x01	; 1
    4020:	08 95       	ret

00004022 <__divsf3>:
    4022:	0c d0       	rcall	.+24     	; 0x403c <__divsf3x>
    4024:	0f c1       	rjmp	.+542    	; 0x4244 <__fp_round>
    4026:	07 d1       	rcall	.+526    	; 0x4236 <__fp_pscB>
    4028:	40 f0       	brcs	.+16     	; 0x403a <__divsf3+0x18>
    402a:	fe d0       	rcall	.+508    	; 0x4228 <__fp_pscA>
    402c:	30 f0       	brcs	.+12     	; 0x403a <__divsf3+0x18>
    402e:	21 f4       	brne	.+8      	; 0x4038 <__divsf3+0x16>
    4030:	5f 3f       	cpi	r21, 0xFF	; 255
    4032:	19 f0       	breq	.+6      	; 0x403a <__divsf3+0x18>
    4034:	f0 c0       	rjmp	.+480    	; 0x4216 <__fp_inf>
    4036:	51 11       	cpse	r21, r1
    4038:	39 c1       	rjmp	.+626    	; 0x42ac <__fp_szero>
    403a:	f3 c0       	rjmp	.+486    	; 0x4222 <__fp_nan>

0000403c <__divsf3x>:
    403c:	14 d1       	rcall	.+552    	; 0x4266 <__fp_split3>
    403e:	98 f3       	brcs	.-26     	; 0x4026 <__divsf3+0x4>

00004040 <__divsf3_pse>:
    4040:	99 23       	and	r25, r25
    4042:	c9 f3       	breq	.-14     	; 0x4036 <__divsf3+0x14>
    4044:	55 23       	and	r21, r21
    4046:	b1 f3       	breq	.-20     	; 0x4034 <__divsf3+0x12>
    4048:	95 1b       	sub	r25, r21
    404a:	55 0b       	sbc	r21, r21
    404c:	bb 27       	eor	r27, r27
    404e:	aa 27       	eor	r26, r26
    4050:	62 17       	cp	r22, r18
    4052:	73 07       	cpc	r23, r19
    4054:	84 07       	cpc	r24, r20
    4056:	38 f0       	brcs	.+14     	; 0x4066 <__divsf3_pse+0x26>
    4058:	9f 5f       	subi	r25, 0xFF	; 255
    405a:	5f 4f       	sbci	r21, 0xFF	; 255
    405c:	22 0f       	add	r18, r18
    405e:	33 1f       	adc	r19, r19
    4060:	44 1f       	adc	r20, r20
    4062:	aa 1f       	adc	r26, r26
    4064:	a9 f3       	breq	.-22     	; 0x4050 <__divsf3_pse+0x10>
    4066:	33 d0       	rcall	.+102    	; 0x40ce <__divsf3_pse+0x8e>
    4068:	0e 2e       	mov	r0, r30
    406a:	3a f0       	brmi	.+14     	; 0x407a <__divsf3_pse+0x3a>
    406c:	e0 e8       	ldi	r30, 0x80	; 128
    406e:	30 d0       	rcall	.+96     	; 0x40d0 <__divsf3_pse+0x90>
    4070:	91 50       	subi	r25, 0x01	; 1
    4072:	50 40       	sbci	r21, 0x00	; 0
    4074:	e6 95       	lsr	r30
    4076:	00 1c       	adc	r0, r0
    4078:	ca f7       	brpl	.-14     	; 0x406c <__divsf3_pse+0x2c>
    407a:	29 d0       	rcall	.+82     	; 0x40ce <__divsf3_pse+0x8e>
    407c:	fe 2f       	mov	r31, r30
    407e:	27 d0       	rcall	.+78     	; 0x40ce <__divsf3_pse+0x8e>
    4080:	66 0f       	add	r22, r22
    4082:	77 1f       	adc	r23, r23
    4084:	88 1f       	adc	r24, r24
    4086:	bb 1f       	adc	r27, r27
    4088:	26 17       	cp	r18, r22
    408a:	37 07       	cpc	r19, r23
    408c:	48 07       	cpc	r20, r24
    408e:	ab 07       	cpc	r26, r27
    4090:	b0 e8       	ldi	r27, 0x80	; 128
    4092:	09 f0       	breq	.+2      	; 0x4096 <__divsf3_pse+0x56>
    4094:	bb 0b       	sbc	r27, r27
    4096:	80 2d       	mov	r24, r0
    4098:	bf 01       	movw	r22, r30
    409a:	ff 27       	eor	r31, r31
    409c:	93 58       	subi	r25, 0x83	; 131
    409e:	5f 4f       	sbci	r21, 0xFF	; 255
    40a0:	2a f0       	brmi	.+10     	; 0x40ac <__divsf3_pse+0x6c>
    40a2:	9e 3f       	cpi	r25, 0xFE	; 254
    40a4:	51 05       	cpc	r21, r1
    40a6:	68 f0       	brcs	.+26     	; 0x40c2 <__divsf3_pse+0x82>
    40a8:	b6 c0       	rjmp	.+364    	; 0x4216 <__fp_inf>
    40aa:	00 c1       	rjmp	.+512    	; 0x42ac <__fp_szero>
    40ac:	5f 3f       	cpi	r21, 0xFF	; 255
    40ae:	ec f3       	brlt	.-6      	; 0x40aa <__divsf3_pse+0x6a>
    40b0:	98 3e       	cpi	r25, 0xE8	; 232
    40b2:	dc f3       	brlt	.-10     	; 0x40aa <__divsf3_pse+0x6a>
    40b4:	86 95       	lsr	r24
    40b6:	77 95       	ror	r23
    40b8:	67 95       	ror	r22
    40ba:	b7 95       	ror	r27
    40bc:	f7 95       	ror	r31
    40be:	9f 5f       	subi	r25, 0xFF	; 255
    40c0:	c9 f7       	brne	.-14     	; 0x40b4 <__divsf3_pse+0x74>
    40c2:	88 0f       	add	r24, r24
    40c4:	91 1d       	adc	r25, r1
    40c6:	96 95       	lsr	r25
    40c8:	87 95       	ror	r24
    40ca:	97 f9       	bld	r25, 7
    40cc:	08 95       	ret
    40ce:	e1 e0       	ldi	r30, 0x01	; 1
    40d0:	66 0f       	add	r22, r22
    40d2:	77 1f       	adc	r23, r23
    40d4:	88 1f       	adc	r24, r24
    40d6:	bb 1f       	adc	r27, r27
    40d8:	62 17       	cp	r22, r18
    40da:	73 07       	cpc	r23, r19
    40dc:	84 07       	cpc	r24, r20
    40de:	ba 07       	cpc	r27, r26
    40e0:	20 f0       	brcs	.+8      	; 0x40ea <__divsf3_pse+0xaa>
    40e2:	62 1b       	sub	r22, r18
    40e4:	73 0b       	sbc	r23, r19
    40e6:	84 0b       	sbc	r24, r20
    40e8:	ba 0b       	sbc	r27, r26
    40ea:	ee 1f       	adc	r30, r30
    40ec:	88 f7       	brcc	.-30     	; 0x40d0 <__divsf3_pse+0x90>
    40ee:	e0 95       	com	r30
    40f0:	08 95       	ret

000040f2 <__fixsfsi>:
    40f2:	04 d0       	rcall	.+8      	; 0x40fc <__fixunssfsi>
    40f4:	68 94       	set
    40f6:	b1 11       	cpse	r27, r1
    40f8:	d9 c0       	rjmp	.+434    	; 0x42ac <__fp_szero>
    40fa:	08 95       	ret

000040fc <__fixunssfsi>:
    40fc:	bc d0       	rcall	.+376    	; 0x4276 <__fp_splitA>
    40fe:	88 f0       	brcs	.+34     	; 0x4122 <__fixunssfsi+0x26>
    4100:	9f 57       	subi	r25, 0x7F	; 127
    4102:	90 f0       	brcs	.+36     	; 0x4128 <__fixunssfsi+0x2c>
    4104:	b9 2f       	mov	r27, r25
    4106:	99 27       	eor	r25, r25
    4108:	b7 51       	subi	r27, 0x17	; 23
    410a:	a0 f0       	brcs	.+40     	; 0x4134 <__fixunssfsi+0x38>
    410c:	d1 f0       	breq	.+52     	; 0x4142 <__fixunssfsi+0x46>
    410e:	66 0f       	add	r22, r22
    4110:	77 1f       	adc	r23, r23
    4112:	88 1f       	adc	r24, r24
    4114:	99 1f       	adc	r25, r25
    4116:	1a f0       	brmi	.+6      	; 0x411e <__fixunssfsi+0x22>
    4118:	ba 95       	dec	r27
    411a:	c9 f7       	brne	.-14     	; 0x410e <__fixunssfsi+0x12>
    411c:	12 c0       	rjmp	.+36     	; 0x4142 <__fixunssfsi+0x46>
    411e:	b1 30       	cpi	r27, 0x01	; 1
    4120:	81 f0       	breq	.+32     	; 0x4142 <__fixunssfsi+0x46>
    4122:	c3 d0       	rcall	.+390    	; 0x42aa <__fp_zero>
    4124:	b1 e0       	ldi	r27, 0x01	; 1
    4126:	08 95       	ret
    4128:	c0 c0       	rjmp	.+384    	; 0x42aa <__fp_zero>
    412a:	67 2f       	mov	r22, r23
    412c:	78 2f       	mov	r23, r24
    412e:	88 27       	eor	r24, r24
    4130:	b8 5f       	subi	r27, 0xF8	; 248
    4132:	39 f0       	breq	.+14     	; 0x4142 <__fixunssfsi+0x46>
    4134:	b9 3f       	cpi	r27, 0xF9	; 249
    4136:	cc f3       	brlt	.-14     	; 0x412a <__fixunssfsi+0x2e>
    4138:	86 95       	lsr	r24
    413a:	77 95       	ror	r23
    413c:	67 95       	ror	r22
    413e:	b3 95       	inc	r27
    4140:	d9 f7       	brne	.-10     	; 0x4138 <__fixunssfsi+0x3c>
    4142:	3e f4       	brtc	.+14     	; 0x4152 <__fixunssfsi+0x56>
    4144:	90 95       	com	r25
    4146:	80 95       	com	r24
    4148:	70 95       	com	r23
    414a:	61 95       	neg	r22
    414c:	7f 4f       	sbci	r23, 0xFF	; 255
    414e:	8f 4f       	sbci	r24, 0xFF	; 255
    4150:	9f 4f       	sbci	r25, 0xFF	; 255
    4152:	08 95       	ret

00004154 <__floatunsisf>:
    4154:	e8 94       	clt
    4156:	09 c0       	rjmp	.+18     	; 0x416a <__floatsisf+0x12>

00004158 <__floatsisf>:
    4158:	97 fb       	bst	r25, 7
    415a:	3e f4       	brtc	.+14     	; 0x416a <__floatsisf+0x12>
    415c:	90 95       	com	r25
    415e:	80 95       	com	r24
    4160:	70 95       	com	r23
    4162:	61 95       	neg	r22
    4164:	7f 4f       	sbci	r23, 0xFF	; 255
    4166:	8f 4f       	sbci	r24, 0xFF	; 255
    4168:	9f 4f       	sbci	r25, 0xFF	; 255
    416a:	99 23       	and	r25, r25
    416c:	a9 f0       	breq	.+42     	; 0x4198 <__floatsisf+0x40>
    416e:	f9 2f       	mov	r31, r25
    4170:	96 e9       	ldi	r25, 0x96	; 150
    4172:	bb 27       	eor	r27, r27
    4174:	93 95       	inc	r25
    4176:	f6 95       	lsr	r31
    4178:	87 95       	ror	r24
    417a:	77 95       	ror	r23
    417c:	67 95       	ror	r22
    417e:	b7 95       	ror	r27
    4180:	f1 11       	cpse	r31, r1
    4182:	f8 cf       	rjmp	.-16     	; 0x4174 <__floatsisf+0x1c>
    4184:	fa f4       	brpl	.+62     	; 0x41c4 <__floatsisf+0x6c>
    4186:	bb 0f       	add	r27, r27
    4188:	11 f4       	brne	.+4      	; 0x418e <__floatsisf+0x36>
    418a:	60 ff       	sbrs	r22, 0
    418c:	1b c0       	rjmp	.+54     	; 0x41c4 <__floatsisf+0x6c>
    418e:	6f 5f       	subi	r22, 0xFF	; 255
    4190:	7f 4f       	sbci	r23, 0xFF	; 255
    4192:	8f 4f       	sbci	r24, 0xFF	; 255
    4194:	9f 4f       	sbci	r25, 0xFF	; 255
    4196:	16 c0       	rjmp	.+44     	; 0x41c4 <__floatsisf+0x6c>
    4198:	88 23       	and	r24, r24
    419a:	11 f0       	breq	.+4      	; 0x41a0 <__floatsisf+0x48>
    419c:	96 e9       	ldi	r25, 0x96	; 150
    419e:	11 c0       	rjmp	.+34     	; 0x41c2 <__floatsisf+0x6a>
    41a0:	77 23       	and	r23, r23
    41a2:	21 f0       	breq	.+8      	; 0x41ac <__floatsisf+0x54>
    41a4:	9e e8       	ldi	r25, 0x8E	; 142
    41a6:	87 2f       	mov	r24, r23
    41a8:	76 2f       	mov	r23, r22
    41aa:	05 c0       	rjmp	.+10     	; 0x41b6 <__floatsisf+0x5e>
    41ac:	66 23       	and	r22, r22
    41ae:	71 f0       	breq	.+28     	; 0x41cc <__floatsisf+0x74>
    41b0:	96 e8       	ldi	r25, 0x86	; 134
    41b2:	86 2f       	mov	r24, r22
    41b4:	70 e0       	ldi	r23, 0x00	; 0
    41b6:	60 e0       	ldi	r22, 0x00	; 0
    41b8:	2a f0       	brmi	.+10     	; 0x41c4 <__floatsisf+0x6c>
    41ba:	9a 95       	dec	r25
    41bc:	66 0f       	add	r22, r22
    41be:	77 1f       	adc	r23, r23
    41c0:	88 1f       	adc	r24, r24
    41c2:	da f7       	brpl	.-10     	; 0x41ba <__floatsisf+0x62>
    41c4:	88 0f       	add	r24, r24
    41c6:	96 95       	lsr	r25
    41c8:	87 95       	ror	r24
    41ca:	97 f9       	bld	r25, 7
    41cc:	08 95       	ret

000041ce <__fp_cmp>:
    41ce:	99 0f       	add	r25, r25
    41d0:	00 08       	sbc	r0, r0
    41d2:	55 0f       	add	r21, r21
    41d4:	aa 0b       	sbc	r26, r26
    41d6:	e0 e8       	ldi	r30, 0x80	; 128
    41d8:	fe ef       	ldi	r31, 0xFE	; 254
    41da:	16 16       	cp	r1, r22
    41dc:	17 06       	cpc	r1, r23
    41de:	e8 07       	cpc	r30, r24
    41e0:	f9 07       	cpc	r31, r25
    41e2:	c0 f0       	brcs	.+48     	; 0x4214 <__fp_cmp+0x46>
    41e4:	12 16       	cp	r1, r18
    41e6:	13 06       	cpc	r1, r19
    41e8:	e4 07       	cpc	r30, r20
    41ea:	f5 07       	cpc	r31, r21
    41ec:	98 f0       	brcs	.+38     	; 0x4214 <__fp_cmp+0x46>
    41ee:	62 1b       	sub	r22, r18
    41f0:	73 0b       	sbc	r23, r19
    41f2:	84 0b       	sbc	r24, r20
    41f4:	95 0b       	sbc	r25, r21
    41f6:	39 f4       	brne	.+14     	; 0x4206 <__fp_cmp+0x38>
    41f8:	0a 26       	eor	r0, r26
    41fa:	61 f0       	breq	.+24     	; 0x4214 <__fp_cmp+0x46>
    41fc:	23 2b       	or	r18, r19
    41fe:	24 2b       	or	r18, r20
    4200:	25 2b       	or	r18, r21
    4202:	21 f4       	brne	.+8      	; 0x420c <__fp_cmp+0x3e>
    4204:	08 95       	ret
    4206:	0a 26       	eor	r0, r26
    4208:	09 f4       	brne	.+2      	; 0x420c <__fp_cmp+0x3e>
    420a:	a1 40       	sbci	r26, 0x01	; 1
    420c:	a6 95       	lsr	r26
    420e:	8f ef       	ldi	r24, 0xFF	; 255
    4210:	81 1d       	adc	r24, r1
    4212:	81 1d       	adc	r24, r1
    4214:	08 95       	ret

00004216 <__fp_inf>:
    4216:	97 f9       	bld	r25, 7
    4218:	9f 67       	ori	r25, 0x7F	; 127
    421a:	80 e8       	ldi	r24, 0x80	; 128
    421c:	70 e0       	ldi	r23, 0x00	; 0
    421e:	60 e0       	ldi	r22, 0x00	; 0
    4220:	08 95       	ret

00004222 <__fp_nan>:
    4222:	9f ef       	ldi	r25, 0xFF	; 255
    4224:	80 ec       	ldi	r24, 0xC0	; 192
    4226:	08 95       	ret

00004228 <__fp_pscA>:
    4228:	00 24       	eor	r0, r0
    422a:	0a 94       	dec	r0
    422c:	16 16       	cp	r1, r22
    422e:	17 06       	cpc	r1, r23
    4230:	18 06       	cpc	r1, r24
    4232:	09 06       	cpc	r0, r25
    4234:	08 95       	ret

00004236 <__fp_pscB>:
    4236:	00 24       	eor	r0, r0
    4238:	0a 94       	dec	r0
    423a:	12 16       	cp	r1, r18
    423c:	13 06       	cpc	r1, r19
    423e:	14 06       	cpc	r1, r20
    4240:	05 06       	cpc	r0, r21
    4242:	08 95       	ret

00004244 <__fp_round>:
    4244:	09 2e       	mov	r0, r25
    4246:	03 94       	inc	r0
    4248:	00 0c       	add	r0, r0
    424a:	11 f4       	brne	.+4      	; 0x4250 <__fp_round+0xc>
    424c:	88 23       	and	r24, r24
    424e:	52 f0       	brmi	.+20     	; 0x4264 <__fp_round+0x20>
    4250:	bb 0f       	add	r27, r27
    4252:	40 f4       	brcc	.+16     	; 0x4264 <__fp_round+0x20>
    4254:	bf 2b       	or	r27, r31
    4256:	11 f4       	brne	.+4      	; 0x425c <__fp_round+0x18>
    4258:	60 ff       	sbrs	r22, 0
    425a:	04 c0       	rjmp	.+8      	; 0x4264 <__fp_round+0x20>
    425c:	6f 5f       	subi	r22, 0xFF	; 255
    425e:	7f 4f       	sbci	r23, 0xFF	; 255
    4260:	8f 4f       	sbci	r24, 0xFF	; 255
    4262:	9f 4f       	sbci	r25, 0xFF	; 255
    4264:	08 95       	ret

00004266 <__fp_split3>:
    4266:	57 fd       	sbrc	r21, 7
    4268:	90 58       	subi	r25, 0x80	; 128
    426a:	44 0f       	add	r20, r20
    426c:	55 1f       	adc	r21, r21
    426e:	59 f0       	breq	.+22     	; 0x4286 <__fp_splitA+0x10>
    4270:	5f 3f       	cpi	r21, 0xFF	; 255
    4272:	71 f0       	breq	.+28     	; 0x4290 <__fp_splitA+0x1a>
    4274:	47 95       	ror	r20

00004276 <__fp_splitA>:
    4276:	88 0f       	add	r24, r24
    4278:	97 fb       	bst	r25, 7
    427a:	99 1f       	adc	r25, r25
    427c:	61 f0       	breq	.+24     	; 0x4296 <__fp_splitA+0x20>
    427e:	9f 3f       	cpi	r25, 0xFF	; 255
    4280:	79 f0       	breq	.+30     	; 0x42a0 <__fp_splitA+0x2a>
    4282:	87 95       	ror	r24
    4284:	08 95       	ret
    4286:	12 16       	cp	r1, r18
    4288:	13 06       	cpc	r1, r19
    428a:	14 06       	cpc	r1, r20
    428c:	55 1f       	adc	r21, r21
    428e:	f2 cf       	rjmp	.-28     	; 0x4274 <__fp_split3+0xe>
    4290:	46 95       	lsr	r20
    4292:	f1 df       	rcall	.-30     	; 0x4276 <__fp_splitA>
    4294:	08 c0       	rjmp	.+16     	; 0x42a6 <__fp_splitA+0x30>
    4296:	16 16       	cp	r1, r22
    4298:	17 06       	cpc	r1, r23
    429a:	18 06       	cpc	r1, r24
    429c:	99 1f       	adc	r25, r25
    429e:	f1 cf       	rjmp	.-30     	; 0x4282 <__fp_splitA+0xc>
    42a0:	86 95       	lsr	r24
    42a2:	71 05       	cpc	r23, r1
    42a4:	61 05       	cpc	r22, r1
    42a6:	08 94       	sec
    42a8:	08 95       	ret

000042aa <__fp_zero>:
    42aa:	e8 94       	clt

000042ac <__fp_szero>:
    42ac:	bb 27       	eor	r27, r27
    42ae:	66 27       	eor	r22, r22
    42b0:	77 27       	eor	r23, r23
    42b2:	cb 01       	movw	r24, r22
    42b4:	97 f9       	bld	r25, 7
    42b6:	08 95       	ret

000042b8 <__gesf2>:
    42b8:	8a df       	rcall	.-236    	; 0x41ce <__fp_cmp>
    42ba:	08 f4       	brcc	.+2      	; 0x42be <__gesf2+0x6>
    42bc:	8f ef       	ldi	r24, 0xFF	; 255
    42be:	08 95       	ret

000042c0 <__mulsf3>:
    42c0:	0b d0       	rcall	.+22     	; 0x42d8 <__mulsf3x>
    42c2:	c0 cf       	rjmp	.-128    	; 0x4244 <__fp_round>
    42c4:	b1 df       	rcall	.-158    	; 0x4228 <__fp_pscA>
    42c6:	28 f0       	brcs	.+10     	; 0x42d2 <__mulsf3+0x12>
    42c8:	b6 df       	rcall	.-148    	; 0x4236 <__fp_pscB>
    42ca:	18 f0       	brcs	.+6      	; 0x42d2 <__mulsf3+0x12>
    42cc:	95 23       	and	r25, r21
    42ce:	09 f0       	breq	.+2      	; 0x42d2 <__mulsf3+0x12>
    42d0:	a2 cf       	rjmp	.-188    	; 0x4216 <__fp_inf>
    42d2:	a7 cf       	rjmp	.-178    	; 0x4222 <__fp_nan>
    42d4:	11 24       	eor	r1, r1
    42d6:	ea cf       	rjmp	.-44     	; 0x42ac <__fp_szero>

000042d8 <__mulsf3x>:
    42d8:	c6 df       	rcall	.-116    	; 0x4266 <__fp_split3>
    42da:	a0 f3       	brcs	.-24     	; 0x42c4 <__mulsf3+0x4>

000042dc <__mulsf3_pse>:
    42dc:	95 9f       	mul	r25, r21
    42de:	d1 f3       	breq	.-12     	; 0x42d4 <__mulsf3+0x14>
    42e0:	95 0f       	add	r25, r21
    42e2:	50 e0       	ldi	r21, 0x00	; 0
    42e4:	55 1f       	adc	r21, r21
    42e6:	62 9f       	mul	r22, r18
    42e8:	f0 01       	movw	r30, r0
    42ea:	72 9f       	mul	r23, r18
    42ec:	bb 27       	eor	r27, r27
    42ee:	f0 0d       	add	r31, r0
    42f0:	b1 1d       	adc	r27, r1
    42f2:	63 9f       	mul	r22, r19
    42f4:	aa 27       	eor	r26, r26
    42f6:	f0 0d       	add	r31, r0
    42f8:	b1 1d       	adc	r27, r1
    42fa:	aa 1f       	adc	r26, r26
    42fc:	64 9f       	mul	r22, r20
    42fe:	66 27       	eor	r22, r22
    4300:	b0 0d       	add	r27, r0
    4302:	a1 1d       	adc	r26, r1
    4304:	66 1f       	adc	r22, r22
    4306:	82 9f       	mul	r24, r18
    4308:	22 27       	eor	r18, r18
    430a:	b0 0d       	add	r27, r0
    430c:	a1 1d       	adc	r26, r1
    430e:	62 1f       	adc	r22, r18
    4310:	73 9f       	mul	r23, r19
    4312:	b0 0d       	add	r27, r0
    4314:	a1 1d       	adc	r26, r1
    4316:	62 1f       	adc	r22, r18
    4318:	83 9f       	mul	r24, r19
    431a:	a0 0d       	add	r26, r0
    431c:	61 1d       	adc	r22, r1
    431e:	22 1f       	adc	r18, r18
    4320:	74 9f       	mul	r23, r20
    4322:	33 27       	eor	r19, r19
    4324:	a0 0d       	add	r26, r0
    4326:	61 1d       	adc	r22, r1
    4328:	23 1f       	adc	r18, r19
    432a:	84 9f       	mul	r24, r20
    432c:	60 0d       	add	r22, r0
    432e:	21 1d       	adc	r18, r1
    4330:	82 2f       	mov	r24, r18
    4332:	76 2f       	mov	r23, r22
    4334:	6a 2f       	mov	r22, r26
    4336:	11 24       	eor	r1, r1
    4338:	9f 57       	subi	r25, 0x7F	; 127
    433a:	50 40       	sbci	r21, 0x00	; 0
    433c:	8a f0       	brmi	.+34     	; 0x4360 <__mulsf3_pse+0x84>
    433e:	e1 f0       	breq	.+56     	; 0x4378 <__mulsf3_pse+0x9c>
    4340:	88 23       	and	r24, r24
    4342:	4a f0       	brmi	.+18     	; 0x4356 <__mulsf3_pse+0x7a>
    4344:	ee 0f       	add	r30, r30
    4346:	ff 1f       	adc	r31, r31
    4348:	bb 1f       	adc	r27, r27
    434a:	66 1f       	adc	r22, r22
    434c:	77 1f       	adc	r23, r23
    434e:	88 1f       	adc	r24, r24
    4350:	91 50       	subi	r25, 0x01	; 1
    4352:	50 40       	sbci	r21, 0x00	; 0
    4354:	a9 f7       	brne	.-22     	; 0x4340 <__mulsf3_pse+0x64>
    4356:	9e 3f       	cpi	r25, 0xFE	; 254
    4358:	51 05       	cpc	r21, r1
    435a:	70 f0       	brcs	.+28     	; 0x4378 <__mulsf3_pse+0x9c>
    435c:	5c cf       	rjmp	.-328    	; 0x4216 <__fp_inf>
    435e:	a6 cf       	rjmp	.-180    	; 0x42ac <__fp_szero>
    4360:	5f 3f       	cpi	r21, 0xFF	; 255
    4362:	ec f3       	brlt	.-6      	; 0x435e <__mulsf3_pse+0x82>
    4364:	98 3e       	cpi	r25, 0xE8	; 232
    4366:	dc f3       	brlt	.-10     	; 0x435e <__mulsf3_pse+0x82>
    4368:	86 95       	lsr	r24
    436a:	77 95       	ror	r23
    436c:	67 95       	ror	r22
    436e:	b7 95       	ror	r27
    4370:	f7 95       	ror	r31
    4372:	e7 95       	ror	r30
    4374:	9f 5f       	subi	r25, 0xFF	; 255
    4376:	c1 f7       	brne	.-16     	; 0x4368 <__mulsf3_pse+0x8c>
    4378:	fe 2b       	or	r31, r30
    437a:	88 0f       	add	r24, r24
    437c:	91 1d       	adc	r25, r1
    437e:	96 95       	lsr	r25
    4380:	87 95       	ror	r24
    4382:	97 f9       	bld	r25, 7
    4384:	08 95       	ret

00004386 <pow>:
    4386:	fa 01       	movw	r30, r20
    4388:	ee 0f       	add	r30, r30
    438a:	ff 1f       	adc	r31, r31
    438c:	30 96       	adiw	r30, 0x00	; 0
    438e:	21 05       	cpc	r18, r1
    4390:	31 05       	cpc	r19, r1
    4392:	99 f1       	breq	.+102    	; 0x43fa <pow+0x74>
    4394:	61 15       	cp	r22, r1
    4396:	71 05       	cpc	r23, r1
    4398:	61 f4       	brne	.+24     	; 0x43b2 <pow+0x2c>
    439a:	80 38       	cpi	r24, 0x80	; 128
    439c:	bf e3       	ldi	r27, 0x3F	; 63
    439e:	9b 07       	cpc	r25, r27
    43a0:	49 f1       	breq	.+82     	; 0x43f4 <pow+0x6e>
    43a2:	68 94       	set
    43a4:	90 38       	cpi	r25, 0x80	; 128
    43a6:	81 05       	cpc	r24, r1
    43a8:	61 f0       	breq	.+24     	; 0x43c2 <pow+0x3c>
    43aa:	80 38       	cpi	r24, 0x80	; 128
    43ac:	bf ef       	ldi	r27, 0xFF	; 255
    43ae:	9b 07       	cpc	r25, r27
    43b0:	41 f0       	breq	.+16     	; 0x43c2 <pow+0x3c>
    43b2:	99 23       	and	r25, r25
    43b4:	42 f5       	brpl	.+80     	; 0x4406 <pow+0x80>
    43b6:	ff 3f       	cpi	r31, 0xFF	; 255
    43b8:	e1 05       	cpc	r30, r1
    43ba:	31 05       	cpc	r19, r1
    43bc:	21 05       	cpc	r18, r1
    43be:	11 f1       	breq	.+68     	; 0x4404 <pow+0x7e>
    43c0:	e8 94       	clt
    43c2:	08 94       	sec
    43c4:	e7 95       	ror	r30
    43c6:	d9 01       	movw	r26, r18
    43c8:	aa 23       	and	r26, r26
    43ca:	29 f4       	brne	.+10     	; 0x43d6 <pow+0x50>
    43cc:	ab 2f       	mov	r26, r27
    43ce:	be 2f       	mov	r27, r30
    43d0:	f8 5f       	subi	r31, 0xF8	; 248
    43d2:	d0 f3       	brcs	.-12     	; 0x43c8 <pow+0x42>
    43d4:	10 c0       	rjmp	.+32     	; 0x43f6 <pow+0x70>
    43d6:	ff 5f       	subi	r31, 0xFF	; 255
    43d8:	70 f4       	brcc	.+28     	; 0x43f6 <pow+0x70>
    43da:	a6 95       	lsr	r26
    43dc:	e0 f7       	brcc	.-8      	; 0x43d6 <pow+0x50>
    43de:	f7 39       	cpi	r31, 0x97	; 151
    43e0:	50 f0       	brcs	.+20     	; 0x43f6 <pow+0x70>
    43e2:	19 f0       	breq	.+6      	; 0x43ea <pow+0x64>
    43e4:	ff 3a       	cpi	r31, 0xAF	; 175
    43e6:	38 f4       	brcc	.+14     	; 0x43f6 <pow+0x70>
    43e8:	9f 77       	andi	r25, 0x7F	; 127
    43ea:	9f 93       	push	r25
    43ec:	0c d0       	rcall	.+24     	; 0x4406 <pow+0x80>
    43ee:	0f 90       	pop	r0
    43f0:	07 fc       	sbrc	r0, 7
    43f2:	90 58       	subi	r25, 0x80	; 128
    43f4:	08 95       	ret
    43f6:	3e f0       	brts	.+14     	; 0x4406 <pow+0x80>
    43f8:	14 cf       	rjmp	.-472    	; 0x4222 <__fp_nan>
    43fa:	60 e0       	ldi	r22, 0x00	; 0
    43fc:	70 e0       	ldi	r23, 0x00	; 0
    43fe:	80 e8       	ldi	r24, 0x80	; 128
    4400:	9f e3       	ldi	r25, 0x3F	; 63
    4402:	08 95       	ret
    4404:	4f e7       	ldi	r20, 0x7F	; 127
    4406:	9f 77       	andi	r25, 0x7F	; 127
    4408:	5f 93       	push	r21
    440a:	4f 93       	push	r20
    440c:	3f 93       	push	r19
    440e:	2f 93       	push	r18
    4410:	9e d0       	rcall	.+316    	; 0x454e <log>
    4412:	2f 91       	pop	r18
    4414:	3f 91       	pop	r19
    4416:	4f 91       	pop	r20
    4418:	5f 91       	pop	r21
    441a:	52 df       	rcall	.-348    	; 0x42c0 <__mulsf3>
    441c:	05 c0       	rjmp	.+10     	; 0x4428 <exp>
    441e:	19 f4       	brne	.+6      	; 0x4426 <pow+0xa0>
    4420:	0e f0       	brts	.+2      	; 0x4424 <pow+0x9e>
    4422:	f9 ce       	rjmp	.-526    	; 0x4216 <__fp_inf>
    4424:	42 cf       	rjmp	.-380    	; 0x42aa <__fp_zero>
    4426:	fd ce       	rjmp	.-518    	; 0x4222 <__fp_nan>

00004428 <exp>:
    4428:	26 df       	rcall	.-436    	; 0x4276 <__fp_splitA>
    442a:	c8 f3       	brcs	.-14     	; 0x441e <pow+0x98>
    442c:	96 38       	cpi	r25, 0x86	; 134
    442e:	c0 f7       	brcc	.-16     	; 0x4420 <pow+0x9a>
    4430:	07 f8       	bld	r0, 7
    4432:	0f 92       	push	r0
    4434:	e8 94       	clt
    4436:	2b e3       	ldi	r18, 0x3B	; 59
    4438:	3a ea       	ldi	r19, 0xAA	; 170
    443a:	48 eb       	ldi	r20, 0xB8	; 184
    443c:	5f e7       	ldi	r21, 0x7F	; 127
    443e:	4e df       	rcall	.-356    	; 0x42dc <__mulsf3_pse>
    4440:	0f 92       	push	r0
    4442:	0f 92       	push	r0
    4444:	0f 92       	push	r0
    4446:	4d b7       	in	r20, 0x3d	; 61
    4448:	5e b7       	in	r21, 0x3e	; 62
    444a:	0f 92       	push	r0
    444c:	c0 d0       	rcall	.+384    	; 0x45ce <modf>
    444e:	e4 ee       	ldi	r30, 0xE4	; 228
    4450:	f0 e0       	ldi	r31, 0x00	; 0
    4452:	16 d0       	rcall	.+44     	; 0x4480 <__fp_powser>
    4454:	4f 91       	pop	r20
    4456:	5f 91       	pop	r21
    4458:	ef 91       	pop	r30
    445a:	ff 91       	pop	r31
    445c:	e5 95       	asr	r30
    445e:	ee 1f       	adc	r30, r30
    4460:	ff 1f       	adc	r31, r31
    4462:	49 f0       	breq	.+18     	; 0x4476 <exp+0x4e>
    4464:	fe 57       	subi	r31, 0x7E	; 126
    4466:	e0 68       	ori	r30, 0x80	; 128
    4468:	44 27       	eor	r20, r20
    446a:	ee 0f       	add	r30, r30
    446c:	44 1f       	adc	r20, r20
    446e:	fa 95       	dec	r31
    4470:	e1 f7       	brne	.-8      	; 0x446a <exp+0x42>
    4472:	41 95       	neg	r20
    4474:	55 0b       	sbc	r21, r21
    4476:	32 d0       	rcall	.+100    	; 0x44dc <ldexp>
    4478:	0f 90       	pop	r0
    447a:	07 fe       	sbrs	r0, 7
    447c:	26 c0       	rjmp	.+76     	; 0x44ca <inverse>
    447e:	08 95       	ret

00004480 <__fp_powser>:
    4480:	df 93       	push	r29
    4482:	cf 93       	push	r28
    4484:	1f 93       	push	r17
    4486:	0f 93       	push	r16
    4488:	ff 92       	push	r15
    448a:	ef 92       	push	r14
    448c:	df 92       	push	r13
    448e:	7b 01       	movw	r14, r22
    4490:	8c 01       	movw	r16, r24
    4492:	68 94       	set
    4494:	05 c0       	rjmp	.+10     	; 0x44a0 <__fp_powser+0x20>
    4496:	da 2e       	mov	r13, r26
    4498:	ef 01       	movw	r28, r30
    449a:	1e df       	rcall	.-452    	; 0x42d8 <__mulsf3x>
    449c:	fe 01       	movw	r30, r28
    449e:	e8 94       	clt
    44a0:	a5 91       	lpm	r26, Z+
    44a2:	25 91       	lpm	r18, Z+
    44a4:	35 91       	lpm	r19, Z+
    44a6:	45 91       	lpm	r20, Z+
    44a8:	55 91       	lpm	r21, Z+
    44aa:	ae f3       	brts	.-22     	; 0x4496 <__fp_powser+0x16>
    44ac:	ef 01       	movw	r28, r30
    44ae:	62 dd       	rcall	.-1340   	; 0x3f74 <__addsf3x>
    44b0:	fe 01       	movw	r30, r28
    44b2:	97 01       	movw	r18, r14
    44b4:	a8 01       	movw	r20, r16
    44b6:	da 94       	dec	r13
    44b8:	79 f7       	brne	.-34     	; 0x4498 <__fp_powser+0x18>
    44ba:	df 90       	pop	r13
    44bc:	ef 90       	pop	r14
    44be:	ff 90       	pop	r15
    44c0:	0f 91       	pop	r16
    44c2:	1f 91       	pop	r17
    44c4:	cf 91       	pop	r28
    44c6:	df 91       	pop	r29
    44c8:	08 95       	ret

000044ca <inverse>:
    44ca:	9b 01       	movw	r18, r22
    44cc:	ac 01       	movw	r20, r24
    44ce:	60 e0       	ldi	r22, 0x00	; 0
    44d0:	70 e0       	ldi	r23, 0x00	; 0
    44d2:	80 e8       	ldi	r24, 0x80	; 128
    44d4:	9f e3       	ldi	r25, 0x3F	; 63
    44d6:	a5 cd       	rjmp	.-1206   	; 0x4022 <__divsf3>
    44d8:	9e ce       	rjmp	.-708    	; 0x4216 <__fp_inf>
    44da:	ac c0       	rjmp	.+344    	; 0x4634 <__fp_mpack>

000044dc <ldexp>:
    44dc:	cc de       	rcall	.-616    	; 0x4276 <__fp_splitA>
    44de:	e8 f3       	brcs	.-6      	; 0x44da <inverse+0x10>
    44e0:	99 23       	and	r25, r25
    44e2:	d9 f3       	breq	.-10     	; 0x44da <inverse+0x10>
    44e4:	94 0f       	add	r25, r20
    44e6:	51 1d       	adc	r21, r1
    44e8:	bb f3       	brvs	.-18     	; 0x44d8 <inverse+0xe>
    44ea:	91 50       	subi	r25, 0x01	; 1
    44ec:	50 40       	sbci	r21, 0x00	; 0
    44ee:	94 f0       	brlt	.+36     	; 0x4514 <ldexp+0x38>
    44f0:	59 f0       	breq	.+22     	; 0x4508 <ldexp+0x2c>
    44f2:	88 23       	and	r24, r24
    44f4:	32 f0       	brmi	.+12     	; 0x4502 <ldexp+0x26>
    44f6:	66 0f       	add	r22, r22
    44f8:	77 1f       	adc	r23, r23
    44fa:	88 1f       	adc	r24, r24
    44fc:	91 50       	subi	r25, 0x01	; 1
    44fe:	50 40       	sbci	r21, 0x00	; 0
    4500:	c1 f7       	brne	.-16     	; 0x44f2 <ldexp+0x16>
    4502:	9e 3f       	cpi	r25, 0xFE	; 254
    4504:	51 05       	cpc	r21, r1
    4506:	44 f7       	brge	.-48     	; 0x44d8 <inverse+0xe>
    4508:	88 0f       	add	r24, r24
    450a:	91 1d       	adc	r25, r1
    450c:	96 95       	lsr	r25
    450e:	87 95       	ror	r24
    4510:	97 f9       	bld	r25, 7
    4512:	08 95       	ret
    4514:	5f 3f       	cpi	r21, 0xFF	; 255
    4516:	ac f0       	brlt	.+42     	; 0x4542 <ldexp+0x66>
    4518:	98 3e       	cpi	r25, 0xE8	; 232
    451a:	9c f0       	brlt	.+38     	; 0x4542 <ldexp+0x66>
    451c:	bb 27       	eor	r27, r27
    451e:	86 95       	lsr	r24
    4520:	77 95       	ror	r23
    4522:	67 95       	ror	r22
    4524:	b7 95       	ror	r27
    4526:	08 f4       	brcc	.+2      	; 0x452a <ldexp+0x4e>
    4528:	b1 60       	ori	r27, 0x01	; 1
    452a:	93 95       	inc	r25
    452c:	c1 f7       	brne	.-16     	; 0x451e <ldexp+0x42>
    452e:	bb 0f       	add	r27, r27
    4530:	58 f7       	brcc	.-42     	; 0x4508 <ldexp+0x2c>
    4532:	11 f4       	brne	.+4      	; 0x4538 <ldexp+0x5c>
    4534:	60 ff       	sbrs	r22, 0
    4536:	e8 cf       	rjmp	.-48     	; 0x4508 <ldexp+0x2c>
    4538:	6f 5f       	subi	r22, 0xFF	; 255
    453a:	7f 4f       	sbci	r23, 0xFF	; 255
    453c:	8f 4f       	sbci	r24, 0xFF	; 255
    453e:	9f 4f       	sbci	r25, 0xFF	; 255
    4540:	e3 cf       	rjmp	.-58     	; 0x4508 <ldexp+0x2c>
    4542:	b4 ce       	rjmp	.-664    	; 0x42ac <__fp_szero>
    4544:	0e f0       	brts	.+2      	; 0x4548 <ldexp+0x6c>
    4546:	76 c0       	rjmp	.+236    	; 0x4634 <__fp_mpack>
    4548:	6c ce       	rjmp	.-808    	; 0x4222 <__fp_nan>
    454a:	68 94       	set
    454c:	64 ce       	rjmp	.-824    	; 0x4216 <__fp_inf>

0000454e <log>:
    454e:	93 de       	rcall	.-730    	; 0x4276 <__fp_splitA>
    4550:	c8 f3       	brcs	.-14     	; 0x4544 <ldexp+0x68>
    4552:	99 23       	and	r25, r25
    4554:	d1 f3       	breq	.-12     	; 0x454a <ldexp+0x6e>
    4556:	c6 f3       	brts	.-16     	; 0x4548 <ldexp+0x6c>
    4558:	df 93       	push	r29
    455a:	cf 93       	push	r28
    455c:	1f 93       	push	r17
    455e:	0f 93       	push	r16
    4560:	ff 92       	push	r15
    4562:	c9 2f       	mov	r28, r25
    4564:	dd 27       	eor	r29, r29
    4566:	88 23       	and	r24, r24
    4568:	2a f0       	brmi	.+10     	; 0x4574 <log+0x26>
    456a:	21 97       	sbiw	r28, 0x01	; 1
    456c:	66 0f       	add	r22, r22
    456e:	77 1f       	adc	r23, r23
    4570:	88 1f       	adc	r24, r24
    4572:	da f7       	brpl	.-10     	; 0x456a <log+0x1c>
    4574:	20 e0       	ldi	r18, 0x00	; 0
    4576:	30 e0       	ldi	r19, 0x00	; 0
    4578:	40 e8       	ldi	r20, 0x80	; 128
    457a:	5f eb       	ldi	r21, 0xBF	; 191
    457c:	9f e3       	ldi	r25, 0x3F	; 63
    457e:	88 39       	cpi	r24, 0x98	; 152
    4580:	20 f0       	brcs	.+8      	; 0x458a <log+0x3c>
    4582:	80 3e       	cpi	r24, 0xE0	; 224
    4584:	30 f0       	brcs	.+12     	; 0x4592 <log+0x44>
    4586:	21 96       	adiw	r28, 0x01	; 1
    4588:	8f 77       	andi	r24, 0x7F	; 127
    458a:	e3 dc       	rcall	.-1594   	; 0x3f52 <__addsf3>
    458c:	ec e0       	ldi	r30, 0x0C	; 12
    458e:	f1 e0       	ldi	r31, 0x01	; 1
    4590:	03 c0       	rjmp	.+6      	; 0x4598 <log+0x4a>
    4592:	df dc       	rcall	.-1602   	; 0x3f52 <__addsf3>
    4594:	e9 e3       	ldi	r30, 0x39	; 57
    4596:	f1 e0       	ldi	r31, 0x01	; 1
    4598:	73 df       	rcall	.-282    	; 0x4480 <__fp_powser>
    459a:	8b 01       	movw	r16, r22
    459c:	be 01       	movw	r22, r28
    459e:	ec 01       	movw	r28, r24
    45a0:	fb 2e       	mov	r15, r27
    45a2:	6f 57       	subi	r22, 0x7F	; 127
    45a4:	71 09       	sbc	r23, r1
    45a6:	75 95       	asr	r23
    45a8:	77 1f       	adc	r23, r23
    45aa:	88 0b       	sbc	r24, r24
    45ac:	99 0b       	sbc	r25, r25
    45ae:	d4 dd       	rcall	.-1112   	; 0x4158 <__floatsisf>
    45b0:	28 e1       	ldi	r18, 0x18	; 24
    45b2:	32 e7       	ldi	r19, 0x72	; 114
    45b4:	41 e3       	ldi	r20, 0x31	; 49
    45b6:	5f e3       	ldi	r21, 0x3F	; 63
    45b8:	8f de       	rcall	.-738    	; 0x42d8 <__mulsf3x>
    45ba:	af 2d       	mov	r26, r15
    45bc:	98 01       	movw	r18, r16
    45be:	ae 01       	movw	r20, r28
    45c0:	ff 90       	pop	r15
    45c2:	0f 91       	pop	r16
    45c4:	1f 91       	pop	r17
    45c6:	cf 91       	pop	r28
    45c8:	df 91       	pop	r29
    45ca:	d4 dc       	rcall	.-1624   	; 0x3f74 <__addsf3x>
    45cc:	3b ce       	rjmp	.-906    	; 0x4244 <__fp_round>

000045ce <modf>:
    45ce:	fa 01       	movw	r30, r20
    45d0:	dc 01       	movw	r26, r24
    45d2:	aa 0f       	add	r26, r26
    45d4:	bb 1f       	adc	r27, r27
    45d6:	9b 01       	movw	r18, r22
    45d8:	ac 01       	movw	r20, r24
    45da:	bf 57       	subi	r27, 0x7F	; 127
    45dc:	28 f4       	brcc	.+10     	; 0x45e8 <modf+0x1a>
    45de:	22 27       	eor	r18, r18
    45e0:	33 27       	eor	r19, r19
    45e2:	44 27       	eor	r20, r20
    45e4:	50 78       	andi	r21, 0x80	; 128
    45e6:	1f c0       	rjmp	.+62     	; 0x4626 <modf+0x58>
    45e8:	b7 51       	subi	r27, 0x17	; 23
    45ea:	88 f4       	brcc	.+34     	; 0x460e <modf+0x40>
    45ec:	ab 2f       	mov	r26, r27
    45ee:	00 24       	eor	r0, r0
    45f0:	46 95       	lsr	r20
    45f2:	37 95       	ror	r19
    45f4:	27 95       	ror	r18
    45f6:	01 1c       	adc	r0, r1
    45f8:	a3 95       	inc	r26
    45fa:	d2 f3       	brmi	.-12     	; 0x45f0 <modf+0x22>
    45fc:	00 20       	and	r0, r0
    45fe:	69 f0       	breq	.+26     	; 0x461a <modf+0x4c>
    4600:	22 0f       	add	r18, r18
    4602:	33 1f       	adc	r19, r19
    4604:	44 1f       	adc	r20, r20
    4606:	b3 95       	inc	r27
    4608:	da f3       	brmi	.-10     	; 0x4600 <modf+0x32>
    460a:	0d d0       	rcall	.+26     	; 0x4626 <modf+0x58>
    460c:	a1 cc       	rjmp	.-1726   	; 0x3f50 <__subsf3>
    460e:	61 30       	cpi	r22, 0x01	; 1
    4610:	71 05       	cpc	r23, r1
    4612:	a0 e8       	ldi	r26, 0x80	; 128
    4614:	8a 07       	cpc	r24, r26
    4616:	b9 46       	sbci	r27, 0x69	; 105
    4618:	30 f4       	brcc	.+12     	; 0x4626 <modf+0x58>
    461a:	9b 01       	movw	r18, r22
    461c:	ac 01       	movw	r20, r24
    461e:	66 27       	eor	r22, r22
    4620:	77 27       	eor	r23, r23
    4622:	88 27       	eor	r24, r24
    4624:	90 78       	andi	r25, 0x80	; 128
    4626:	30 96       	adiw	r30, 0x00	; 0
    4628:	21 f0       	breq	.+8      	; 0x4632 <modf+0x64>
    462a:	20 83       	st	Z, r18
    462c:	31 83       	std	Z+1, r19	; 0x01
    462e:	42 83       	std	Z+2, r20	; 0x02
    4630:	53 83       	std	Z+3, r21	; 0x03
    4632:	08 95       	ret

00004634 <__fp_mpack>:
    4634:	9f 3f       	cpi	r25, 0xFF	; 255
    4636:	31 f0       	breq	.+12     	; 0x4644 <__fp_mpack_finite+0xc>

00004638 <__fp_mpack_finite>:
    4638:	91 50       	subi	r25, 0x01	; 1
    463a:	20 f4       	brcc	.+8      	; 0x4644 <__fp_mpack_finite+0xc>
    463c:	87 95       	ror	r24
    463e:	77 95       	ror	r23
    4640:	67 95       	ror	r22
    4642:	b7 95       	ror	r27
    4644:	88 0f       	add	r24, r24
    4646:	91 1d       	adc	r25, r1
    4648:	96 95       	lsr	r25
    464a:	87 95       	ror	r24
    464c:	97 f9       	bld	r25, 7
    464e:	08 95       	ret

00004650 <__umulhisi3>:
    4650:	a2 9f       	mul	r26, r18
    4652:	b0 01       	movw	r22, r0
    4654:	b3 9f       	mul	r27, r19
    4656:	c0 01       	movw	r24, r0
    4658:	a3 9f       	mul	r26, r19
    465a:	70 0d       	add	r23, r0
    465c:	81 1d       	adc	r24, r1
    465e:	11 24       	eor	r1, r1
    4660:	91 1d       	adc	r25, r1
    4662:	b2 9f       	mul	r27, r18
    4664:	70 0d       	add	r23, r0
    4666:	81 1d       	adc	r24, r1
    4668:	11 24       	eor	r1, r1
    466a:	91 1d       	adc	r25, r1
    466c:	08 95       	ret

0000466e <_exit>:
    466e:	f8 94       	cli

00004670 <__stop_program>:
    4670:	ff cf       	rjmp	.-2      	; 0x4670 <__stop_program>
